(dp0
S'y3.50_y5.00_A3_pol4_p2'
p1
I159
sS'y3.50_y5.00_A4_pol4_p3'
p2
I205
sS'y3.50_y5.00_A3_pol4_p3'
p3
I160
sS'y0.00_y0.40_A1_pol4_p4'
p4
I40
sS'y3.50_y5.00_A3_pol4_p0'
p5
I157
sS'y3.00_y3.50_A0_pol3_p2'
p6
I30
sS'y3.00_y3.50_A0_pol3_p3'
p7
I31
sS'y3.00_y3.50_A0_pol3_p0'
p8
I28
sS'y3.00_y3.50_A0_pol3_p1'
p9
I29
sS'y1.20_y1.60_A4_pol4_p4'
p10
I181
sS'y1.20_y1.60_A2_pol3_p1'
p11
I94
sS'y1.20_y1.60_A2_pol3_p0'
p12
I93
sS'y1.20_y1.60_A2_pol3_p3'
p13
I96
sS'y1.20_y1.60_A2_pol3_p2'
p14
I95
sS'y0.40_y0.80_A1_pol4_p3'
p15
I44
sS'y0.40_y0.80_A1_pol4_p2'
p16
I43
sS'y0.40_y0.80_A1_pol4_p1'
p17
I42
sS'y0.40_y0.80_A1_pol4_p0'
p18
I41
sS'y0.40_y0.80_A1_pol4_p4'
p19
I45
sS'y2.00_y2.50_A1_pol4_p2'
p20
I63
sS'y2.00_y2.50_A1_pol4_p3'
p21
I64
sS'y2.00_y2.50_A1_pol4_p0'
p22
I61
sS'y2.00_y2.50_A1_pol4_p1'
p23
I62
sS'y2.00_y2.50_A1_pol4_p4'
p24
I65
sS'y3.00_y3.50_A3_pol4_p3'
p25
I155
sS'y1.20_y1.60_A4_pol4_p2'
p26
I179
sS'y2.50_y3.00_A0_pol3_p3'
p27
I27
sS'y2.50_y3.00_A0_pol3_p2'
p28
I26
sS'y2.50_y3.00_A0_pol3_p1'
p29
I25
sS'y2.50_y3.00_A0_pol3_p0'
p30
I24
sS'y3.00_y3.50_A3_pol4_p4'
p31
I156
sS'y2.00_y2.50_A4_pol4_p4'
p32
I191
sS'y2.00_y2.50_A4_pol4_p3'
p33
I190
sS'y2.00_y2.50_A4_pol4_p2'
p34
I189
sS'y2.00_y2.50_A4_pol4_p1'
p35
I188
sS'y2.00_y2.50_A4_pol4_p0'
p36
I187
sS'y1.60_y2.00_A4_pol4_p3'
p37
I185
sS'y1.60_y2.00_A4_pol4_p2'
p38
I184
sS'y1.60_y2.00_A4_pol4_p1'
p39
I183
sS'y1.60_y2.00_A4_pol4_p0'
p40
I182
sS'y0.00_y0.40_A4_pol4_p4'
p41
I166
sS'y1.60_y2.00_A4_pol4_p4'
p42
I186
sS'y0.80_y1.20_A4_pol4_p4'
p43
I176
sS'y0.80_y1.20_A4_pol4_p1'
p44
I173
sS'y0.80_y1.20_A4_pol4_p0'
p45
I172
sS'y0.80_y1.20_A4_pol4_p3'
p46
I175
sS'y0.80_y1.20_A4_pol4_p2'
p47
I174
sS'y2.00_y2.50_A3_pol4_p0'
p48
I142
sS'y2.00_y2.50_A3_pol4_p1'
p49
I143
sS'y2.00_y2.50_A3_pol4_p2'
p50
I144
sS'y2.00_y2.50_A3_pol4_p3'
p51
I145
sS'y2.00_y2.50_A3_pol4_p4'
p52
I146
sS'y1.20_y1.60_A4_pol4_p0'
p53
I177
sS'y3.50_y5.00_A4_pol4_p4'
p54
I206
sS'y1.20_y1.60_A4_pol4_p1'
p55
I178
sS'y1.60_y2.00_A3_pol4_p1'
p56
I138
sS'y3.00_y3.50_A2_pol3_p0'
p57
I109
sS'y3.00_y3.50_A2_pol3_p1'
p58
I110
sS'y3.00_y3.50_A2_pol3_p2'
p59
I111
sS'y3.00_y3.50_A2_pol3_p3'
p60
I112
sS'y1.20_y1.60_A0_pol3_p3'
p61
I15
sS'y1.20_y1.60_A0_pol3_p2'
p62
I14
sS'y1.20_y1.60_A0_pol3_p1'
p63
I13
sS'y1.20_y1.60_A0_pol3_p0'
p64
I12
sS'y3.50_y5.00_A3_pol4_p1'
p65
I158
sS'y2.00_y2.50_A2_pol3_p0'
p66
I101
sS'y0.00_y0.40_A0_pol3_p3'
p67
I3
sS'y0.00_y0.40_A0_pol3_p2'
p68
I2
sS'y0.00_y0.40_A0_pol3_p1'
p69
I1
sS'y0.00_y0.40_A0_pol3_p0'
p70
I0
sS'y2.50_y3.00_A3_pol4_p1'
p71
I148
sS'y2.50_y3.00_A3_pol4_p0'
p72
I147
sS'y2.50_y3.00_A3_pol4_p3'
p73
I150
sS'y2.50_y3.00_A3_pol4_p2'
p74
I149
sS'y2.50_y3.00_A3_pol4_p4'
p75
I151
sS'y2.50_y3.00_A1_pol4_p3'
p76
I69
sS'y2.50_y3.00_A1_pol4_p2'
p77
I68
sS'y2.50_y3.00_A1_pol4_p1'
p78
I67
sS'y2.50_y3.00_A1_pol4_p0'
p79
I66
sS'y2.50_y3.00_A2_pol3_p1'
p80
I106
sS'y2.50_y3.00_A2_pol3_p0'
p81
I105
sS'y2.50_y3.00_A2_pol3_p3'
p82
I108
sS'y2.50_y3.00_A1_pol4_p4'
p83
I70
sS'y1.20_y1.60_A3_pol4_p4'
p84
I136
sS'y3.50_y5.00_A4_pol4_p2'
p85
I204
sS'y1.20_y1.60_A3_pol4_p1'
p86
I133
sS'y1.20_y1.60_A3_pol4_p0'
p87
I132
sS'y1.20_y1.60_A3_pol4_p3'
p88
I135
sS'y1.20_y1.60_A3_pol4_p2'
p89
I134
sS'y3.00_y3.50_A4_pol4_p4'
p90
I201
sS'y3.00_y3.50_A4_pol4_p3'
p91
I200
sS'y3.00_y3.50_A4_pol4_p2'
p92
I199
sS'y3.00_y3.50_A4_pol4_p1'
p93
I198
sS'y0.80_y1.20_A0_pol3_p1'
p94
I9
sS'y3.50_y5.00_A2_pol3_p2'
p95
I115
sS'y3.50_y5.00_A2_pol3_p3'
p96
I116
sS'y3.50_y5.00_A2_pol3_p0'
p97
I113
sS'y3.50_y5.00_A2_pol3_p1'
p98
I114
sS'y0.80_y1.20_A2_pol3_p2'
p99
I91
sS'y0.80_y1.20_A2_pol3_p3'
p100
I92
sS'y0.80_y1.20_A2_pol3_p0'
p101
I89
sS'y0.80_y1.20_A2_pol3_p1'
p102
I90
sS'y1.20_y1.60_A4_pol4_p3'
p103
I180
sS'y3.50_y5.00_A3_pol4_p4'
p104
I161
sS'y0.40_y0.80_A4_pol4_p4'
p105
I171
sS'y2.50_y3.00_A2_pol3_p2'
p106
I107
sS'y0.40_y0.80_A4_pol4_p2'
p107
I169
sS'y0.40_y0.80_A4_pol4_p3'
p108
I170
sS'y0.40_y0.80_A4_pol4_p0'
p109
I167
sS'y0.40_y0.80_A4_pol4_p1'
p110
I168
sS'y2.00_y2.50_A2_pol3_p1'
p111
I102
sS'y0.80_y1.20_A1_pol4_p0'
p112
I46
sS'y0.80_y1.20_A1_pol4_p1'
p113
I47
sS'y0.80_y1.20_A1_pol4_p2'
p114
I48
sS'y0.80_y1.20_A1_pol4_p3'
p115
I49
sS'y0.80_y1.20_A1_pol4_p4'
p116
I50
sS'y2.50_y3.00_A4_pol4_p4'
p117
I196
sS'y2.50_y3.00_A4_pol4_p2'
p118
I194
sS'y2.50_y3.00_A4_pol4_p3'
p119
I195
sS'y2.50_y3.00_A4_pol4_p0'
p120
I192
sS'y2.50_y3.00_A4_pol4_p1'
p121
I193
sS'y0.00_y0.40_A3_pol4_p1'
p122
I118
sS'y0.00_y0.40_A3_pol4_p0'
p123
I117
sS'y0.00_y0.40_A3_pol4_p3'
p124
I120
sS'y0.00_y0.40_A3_pol4_p2'
p125
I119
sS'y1.60_y2.00_A0_pol3_p2'
p126
I18
sS'y1.60_y2.00_A0_pol3_p3'
p127
I19
sS'y1.60_y2.00_A0_pol3_p0'
p128
I16
sS'y1.60_y2.00_A0_pol3_p1'
p129
I17
sS'y0.00_y0.40_A1_pol4_p3'
p130
I39
sS'y0.00_y0.40_A1_pol4_p2'
p131
I38
sS'y0.00_y0.40_A1_pol4_p1'
p132
I37
sS'y0.00_y0.40_A1_pol4_p0'
p133
I36
sS'y0.00_y0.40_A2_pol3_p1'
p134
I82
sS'y0.00_y0.40_A2_pol3_p0'
p135
I81
sS'y0.00_y0.40_A2_pol3_p3'
p136
I84
sS'y0.00_y0.40_A2_pol3_p2'
p137
I83
sS'y0.40_y0.80_A3_pol4_p1'
p138
I123
sS'y0.40_y0.80_A3_pol4_p0'
p139
I122
sS'y0.40_y0.80_A3_pol4_p3'
p140
I125
sS'y0.40_y0.80_A3_pol4_p2'
p141
I124
sS'y0.40_y0.80_A3_pol4_p4'
p142
I126
sS'y3.50_y5.00_A1_pol4_p2'
p143
I78
sS'y0.40_y0.80_A2_pol3_p1'
p144
I86
sS'y0.40_y0.80_A2_pol3_p0'
p145
I85
sS'y0.40_y0.80_A2_pol3_p3'
p146
I88
sS'y0.40_y0.80_A2_pol3_p2'
p147
I87
sS'y3.50_y5.00_A0_pol3_p0'
p148
I32
sS'y3.50_y5.00_A0_pol3_p1'
p149
I33
sS'y3.50_y5.00_A0_pol3_p2'
p150
I34
sS'y3.50_y5.00_A0_pol3_p3'
p151
I35
sS'y2.00_y2.50_A0_pol3_p2'
p152
I22
sS'y2.00_y2.50_A0_pol3_p3'
p153
I23
sS'y2.00_y2.50_A0_pol3_p0'
p154
I20
sS'y2.00_y2.50_A0_pol3_p1'
p155
I21
sS'y0.80_y1.20_A0_pol3_p0'
p156
I8
sS'y3.50_y5.00_A1_pol4_p3'
p157
I79
sS'y0.80_y1.20_A0_pol3_p2'
p158
I10
sS'y0.80_y1.20_A0_pol3_p3'
p159
I11
sS'y3.00_y3.50_A3_pol4_p0'
p160
I152
sS'y2.00_y2.50_A2_pol3_p2'
p161
I103
sS'y3.00_y3.50_A3_pol4_p1'
p162
I153
sS'y2.00_y2.50_A2_pol3_p3'
p163
I104
sS'y3.00_y3.50_A3_pol4_p2'
p164
I154
sS'y0.80_y1.20_A3_pol4_p2'
p165
I129
sS'y0.80_y1.20_A3_pol4_p3'
p166
I130
sS'y0.80_y1.20_A3_pol4_p0'
p167
I127
sS'y0.80_y1.20_A3_pol4_p1'
p168
I128
sS'y0.80_y1.20_A3_pol4_p4'
p169
I131
sS'y3.00_y3.50_A4_pol4_p0'
p170
I197
sS'y3.50_y5.00_A1_pol4_p0'
p171
I76
sS'y3.50_y5.00_A1_pol4_p1'
p172
I77
sS'y1.60_y2.00_A1_pol4_p4'
p173
I60
sS'y3.00_y3.50_A1_pol4_p1'
p174
I72
sS'y1.60_y2.00_A1_pol4_p2'
p175
I58
sS'y1.60_y2.00_A1_pol4_p3'
p176
I59
sS'y1.60_y2.00_A1_pol4_p0'
p177
I56
sS'y1.60_y2.00_A1_pol4_p1'
p178
I57
sS'y1.60_y2.00_A2_pol3_p0'
p179
I97
sS'y1.60_y2.00_A2_pol3_p1'
p180
I98
sS'y1.60_y2.00_A2_pol3_p2'
p181
I99
sS'y1.60_y2.00_A2_pol3_p3'
p182
I100
sS'y0.00_y0.40_A4_pol4_p2'
p183
I164
sS'y0.00_y0.40_A4_pol4_p3'
p184
I165
sS'y0.00_y0.40_A4_pol4_p0'
p185
I162
sS'y0.00_y0.40_A4_pol4_p1'
p186
I163
sS'y3.00_y3.50_A1_pol4_p2'
p187
I73
sS'y3.00_y3.50_A1_pol4_p3'
p188
I74
sS'y3.00_y3.50_A1_pol4_p0'
p189
I71
sS'y0.00_y0.40_A3_pol4_p4'
p190
I121
sS'y0.40_y0.80_A0_pol3_p3'
p191
I7
sS'y0.40_y0.80_A0_pol3_p2'
p192
I6
sS'y0.40_y0.80_A0_pol3_p1'
p193
I5
sS'y0.40_y0.80_A0_pol3_p0'
p194
I4
sS'y3.50_y5.00_A1_pol4_p4'
p195
I80
sS'y1.20_y1.60_A1_pol4_p4'
p196
I55
sS'y1.20_y1.60_A1_pol4_p3'
p197
I54
sS'y1.20_y1.60_A1_pol4_p2'
p198
I53
sS'y1.20_y1.60_A1_pol4_p1'
p199
I52
sS'y1.20_y1.60_A1_pol4_p0'
p200
I51
sS'y1.60_y2.00_A3_pol4_p4'
p201
I141
sS'y1.60_y2.00_A3_pol4_p0'
p202
I137
sS'y3.00_y3.50_A1_pol4_p4'
p203
I75
sS'y1.60_y2.00_A3_pol4_p2'
p204
I139
sS'y1.60_y2.00_A3_pol4_p3'
p205
I140
sS'y3.50_y5.00_A4_pol4_p1'
p206
I203
sS'y3.50_y5.00_A4_pol4_p0'
p207
I202
s.