(dp0
S'y0.40_y0.60_A3_pol4_p3'
p1
I195
sS'y0.40_y0.60_A3_pol4_p2'
p2
I194
sS'y0.40_y0.60_A3_pol4_p1'
p3
I193
sS'y1.80_y2.00_A2_pol3_p1'
p4
I163
sS'y0.80_y1.00_A2_pol3_p0'
p5
I142
sS'y0.40_y0.60_A3_pol4_p4'
p6
I196
sS'y0.40_y0.60_A4_pol4_p4'
p7
I266
sS'y0.40_y0.60_A4_pol4_p0'
p8
I262
sS'y3.50_y5.00_A3_pol4_p0'
p9
I247
sS'y0.40_y0.60_A4_pol4_p2'
p10
I264
sS'y0.40_y0.60_A4_pol4_p3'
p11
I265
sS'y3.00_y3.50_A0_pol3_p2'
p12
I50
sS'y3.00_y3.50_A0_pol3_p3'
p13
I51
sS'y3.00_y3.50_A0_pol3_p0'
p14
I48
sS'y3.00_y3.50_A0_pol3_p1'
p15
I49
sS'y0.20_y0.40_A2_pol3_p2'
p16
I132
sS'y1.20_y1.40_A4_pol4_p3'
p17
I285
sS'y0.20_y0.40_A2_pol3_p1'
p18
I131
sS'y1.20_y1.40_A3_pol4_p3'
p19
I215
sS'y1.40_y1.60_A3_pol4_p4'
p20
I221
sS'y1.60_y1.80_A3_pol4_p1'
p21
I223
sS'y0.20_y0.40_A2_pol3_p0'
p22
I130
sS'y1.60_y1.80_A3_pol4_p4'
p23
I226
sS'y1.40_y1.60_A1_pol4_p1'
p24
I92
sS'y1.40_y1.60_A1_pol4_p0'
p25
I91
sS'y1.40_y1.60_A1_pol4_p3'
p26
I94
sS'y1.40_y1.60_A1_pol4_p2'
p27
I93
sS'y0.40_y0.60_A4_pol4_p1'
p28
I263
sS'y1.40_y1.60_A1_pol4_p4'
p29
I95
sS'y2.00_y2.50_A1_pol4_p4'
p30
I110
sS'y1.00_y1.20_A2_pol3_p3'
p31
I149
sS'y1.00_y1.20_A2_pol3_p2'
p32
I148
sS'y1.00_y1.20_A2_pol3_p1'
p33
I147
sS'y1.00_y1.20_A2_pol3_p0'
p34
I146
sS'y1.40_y1.60_A0_pol3_p1'
p35
I29
sS'y1.40_y1.60_A0_pol3_p0'
p36
I28
sS'y1.40_y1.60_A0_pol3_p3'
p37
I31
sS'y1.40_y1.60_A0_pol3_p2'
p38
I30
sS'y0.80_y1.00_A3_pol4_p4'
p39
I206
sS'y1.20_y1.40_A4_pol4_p4'
p40
I286
sS'y0.80_y1.00_A3_pol4_p0'
p41
I202
sS'y0.80_y1.00_A3_pol4_p1'
p42
I203
sS'y0.80_y1.00_A3_pol4_p2'
p43
I204
sS'y0.80_y1.00_A3_pol4_p3'
p44
I205
sS'y2.50_y3.00_A0_pol3_p3'
p45
I47
sS'y2.50_y3.00_A0_pol3_p2'
p46
I46
sS'y2.50_y3.00_A0_pol3_p1'
p47
I45
sS'y2.50_y3.00_A0_pol3_p0'
p48
I44
sS'y3.00_y3.50_A3_pol4_p4'
p49
I246
sS'y1.40_y1.60_A3_pol4_p1'
p50
I218
sS'y0.20_y0.40_A3_pol4_p3'
p51
I190
sS'y0.20_y0.40_A3_pol4_p2'
p52
I189
sS'y0.20_y0.40_A3_pol4_p1'
p53
I188
sS'y0.20_y0.40_A3_pol4_p0'
p54
I187
sS'y3.50_y5.00_A3_pol4_p2'
p55
I249
sS'y0.20_y0.40_A3_pol4_p4'
p56
I191
sS'y0.60_y0.80_A4_pol4_p4'
p57
I271
sS'y2.00_y2.50_A4_pol4_p4'
p58
I306
sS'y2.00_y2.50_A4_pol4_p3'
p59
I305
sS'y2.00_y2.50_A4_pol4_p2'
p60
I304
sS'y2.00_y2.50_A4_pol4_p1'
p61
I303
sS'y2.00_y2.50_A4_pol4_p0'
p62
I302
sS'y1.00_y1.20_A3_pol4_p0'
p63
I207
sS'y1.00_y1.20_A4_pol4_p3'
p64
I280
sS'y0.00_y0.20_A4_pol4_p3'
p65
I255
sS'y0.20_y0.40_A1_pol4_p1'
p66
I62
sS'y0.20_y0.40_A1_pol4_p0'
p67
I61
sS'y0.20_y0.40_A1_pol4_p3'
p68
I64
sS'y0.20_y0.40_A1_pol4_p2'
p69
I63
sS'y0.20_y0.40_A1_pol4_p4'
p70
I65
sS'y0.80_y1.00_A0_pol3_p3'
p71
I19
sS'y1.60_y1.80_A3_pol4_p3'
p72
I225
sS'y0.40_y0.60_A3_pol4_p0'
p73
I192
sS'y2.00_y2.50_A3_pol4_p1'
p74
I233
sS'y2.00_y2.50_A3_pol4_p2'
p75
I234
sS'y2.00_y2.50_A3_pol4_p3'
p76
I235
sS'y2.00_y2.50_A3_pol4_p4'
p77
I236
sS'y0.60_y0.80_A4_pol4_p1'
p78
I268
sS'y2.00_y2.50_A3_pol4_p0'
p79
I232
sS'y1.80_y2.00_A3_pol4_p0'
p80
I227
sS'y1.80_y2.00_A4_pol4_p0'
p81
I297
sS'y0.60_y0.80_A4_pol4_p0'
p82
I267
sS'y1.40_y1.60_A3_pol4_p2'
p83
I219
sS'y0.60_y0.80_A3_pol4_p2'
p84
I199
sS'y1.80_y2.00_A4_pol4_p4'
p85
I301
sS'y3.00_y3.50_A2_pol3_p0'
p86
I174
sS'y3.00_y3.50_A2_pol3_p1'
p87
I175
sS'y3.00_y3.50_A2_pol3_p2'
p88
I176
sS'y3.00_y3.50_A2_pol3_p3'
p89
I177
sS'y2.00_y2.50_A2_pol3_p0'
p90
I166
sS'y2.00_y2.50_A2_pol3_p1'
p91
I167
sS'y2.00_y2.50_A2_pol3_p2'
p92
I168
sS'y0.00_y0.20_A2_pol3_p3'
p93
I129
sS'y0.00_y0.20_A3_pol4_p3'
p94
I185
sS'y0.00_y0.20_A3_pol4_p2'
p95
I184
sS'y0.00_y0.20_A3_pol4_p1'
p96
I183
sS'y0.00_y0.20_A3_pol4_p0'
p97
I182
sS'y1.80_y2.00_A3_pol4_p4'
p98
I231
sS'y0.00_y0.20_A3_pol4_p4'
p99
I186
sS'y0.60_y0.80_A2_pol3_p3'
p100
I141
sS'y0.60_y0.80_A2_pol3_p2'
p101
I140
sS'y0.60_y0.80_A2_pol3_p1'
p102
I139
sS'y0.60_y0.80_A2_pol3_p0'
p103
I138
sS'y0.60_y0.80_A3_pol4_p1'
p104
I198
sS'y3.50_y5.00_A3_pol4_p1'
p105
I248
sS'y1.40_y1.60_A2_pol3_p0'
p106
I154
sS'y1.20_y1.40_A4_pol4_p0'
p107
I282
sS'y1.20_y1.40_A4_pol4_p1'
p108
I283
sS'y1.20_y1.40_A4_pol4_p2'
p109
I284
sS'y1.60_y1.80_A3_pol4_p2'
p110
I224
sS'y0.80_y1.00_A4_pol4_p0'
p111
I272
sS'y0.00_y0.20_A2_pol3_p2'
p112
I128
sS'y1.20_y1.40_A3_pol4_p2'
p113
I214
sS'y1.00_y1.20_A1_pol4_p1'
p114
I82
sS'y1.00_y1.20_A1_pol4_p0'
p115
I81
sS'y1.00_y1.20_A1_pol4_p3'
p116
I84
sS'y1.00_y1.20_A1_pol4_p2'
p117
I83
sS'y1.40_y1.60_A3_pol4_p0'
p118
I217
sS'y1.00_y1.20_A1_pol4_p4'
p119
I85
sS'y0.60_y0.80_A4_pol4_p2'
p120
I269
sS'y0.60_y0.80_A4_pol4_p3'
p121
I270
sS'y0.60_y0.80_A3_pol4_p0'
p122
I197
sS'y0.40_y0.60_A0_pol3_p1'
p123
I9
sS'y0.40_y0.60_A0_pol3_p0'
p124
I8
sS'y0.40_y0.60_A0_pol3_p3'
p125
I11
sS'y0.40_y0.60_A0_pol3_p2'
p126
I10
sS'y2.50_y3.00_A3_pol4_p1'
p127
I238
sS'y2.50_y3.00_A3_pol4_p0'
p128
I237
sS'y2.50_y3.00_A3_pol4_p3'
p129
I240
sS'y2.50_y3.00_A3_pol4_p2'
p130
I239
sS'y2.50_y3.00_A3_pol4_p4'
p131
I241
sS'y0.00_y0.20_A2_pol3_p1'
p132
I127
sS'y2.50_y3.00_A1_pol4_p3'
p133
I114
sS'y2.50_y3.00_A1_pol4_p2'
p134
I113
sS'y2.50_y3.00_A1_pol4_p1'
p135
I112
sS'y2.50_y3.00_A1_pol4_p0'
p136
I111
sS'y2.50_y3.00_A2_pol3_p1'
p137
I171
sS'y2.50_y3.00_A2_pol3_p0'
p138
I170
sS'y2.50_y3.00_A2_pol3_p3'
p139
I173
sS'y2.50_y3.00_A1_pol4_p4'
p140
I115
sS'y1.20_y1.40_A1_pol4_p1'
p141
I87
sS'y1.20_y1.40_A1_pol4_p0'
p142
I86
sS'y1.20_y1.40_A1_pol4_p3'
p143
I89
sS'y1.20_y1.40_A1_pol4_p2'
p144
I88
sS'y1.80_y2.00_A1_pol4_p4'
p145
I105
sS'y1.20_y1.40_A1_pol4_p4'
p146
I90
sS'y0.20_y0.40_A2_pol3_p3'
p147
I133
sS'y0.20_y0.40_A4_pol4_p4'
p148
I261
sS'y1.20_y1.40_A0_pol3_p1'
p149
I25
sS'y1.20_y1.40_A0_pol3_p0'
p150
I24
sS'y1.20_y1.40_A0_pol3_p3'
p151
I27
sS'y1.20_y1.40_A0_pol3_p2'
p152
I26
sS'y3.50_y5.00_A2_pol3_p3'
p153
I181
sS'y3.00_y3.50_A4_pol4_p3'
p154
I315
sS'y3.00_y3.50_A4_pol4_p2'
p155
I314
sS'y3.00_y3.50_A4_pol4_p1'
p156
I313
sS'y3.00_y3.50_A4_pol4_p0'
p157
I312
sS'y3.50_y5.00_A2_pol3_p2'
p158
I180
sS'y2.00_y2.50_A1_pol4_p2'
p159
I108
sS'y3.50_y5.00_A2_pol3_p0'
p160
I178
sS'y1.60_y1.80_A2_pol3_p0'
p161
I158
sS'y2.00_y2.50_A1_pol4_p3'
p162
I109
sS'y0.20_y0.40_A4_pol4_p0'
p163
I257
sS'y2.00_y2.50_A1_pol4_p0'
p164
I106
sS'y0.20_y0.40_A4_pol4_p1'
p165
I258
sS'y1.00_y1.20_A3_pol4_p3'
p166
I210
sS'y1.00_y1.20_A3_pol4_p2'
p167
I209
sS'y1.00_y1.20_A3_pol4_p1'
p168
I208
sS'y2.00_y2.50_A1_pol4_p1'
p169
I107
sS'y0.20_y0.40_A4_pol4_p2'
p170
I259
sS'y3.50_y5.00_A3_pol4_p4'
p171
I251
sS'y1.00_y1.20_A3_pol4_p4'
p172
I211
sS'y1.00_y1.20_A4_pol4_p4'
p173
I281
sS'y2.50_y3.00_A2_pol3_p2'
p174
I172
sS'y1.00_y1.20_A4_pol4_p0'
p175
I277
sS'y1.00_y1.20_A4_pol4_p1'
p176
I278
sS'y1.00_y1.20_A4_pol4_p2'
p177
I279
sS'y0.00_y0.20_A2_pol3_p0'
p178
I126
sS'y1.80_y2.00_A1_pol4_p0'
p179
I101
sS'y1.80_y2.00_A1_pol4_p1'
p180
I102
sS'y1.60_y1.80_A4_pol4_p4'
p181
I296
sS'y1.80_y2.00_A1_pol4_p2'
p182
I103
sS'y0.00_y0.20_A4_pol4_p4'
p183
I256
sS'y0.60_y0.80_A3_pol4_p3'
p184
I200
sS'y1.80_y2.00_A1_pol4_p3'
p185
I104
sS'y0.00_y0.20_A4_pol4_p0'
p186
I252
sS'y0.00_y0.20_A4_pol4_p1'
p187
I253
sS'y0.00_y0.20_A4_pol4_p2'
p188
I254
sS'y3.50_y5.00_A2_pol3_p1'
p189
I179
sS'y0.60_y0.80_A1_pol4_p1'
p190
I72
sS'y0.60_y0.80_A1_pol4_p0'
p191
I71
sS'y0.60_y0.80_A1_pol4_p3'
p192
I74
sS'y0.60_y0.80_A1_pol4_p2'
p193
I73
sS'y1.60_y1.80_A4_pol4_p0'
p194
I292
sS'y0.60_y0.80_A1_pol4_p4'
p195
I75
sS'y1.60_y1.80_A4_pol4_p2'
p196
I294
sS'y1.60_y1.80_A4_pol4_p3'
p197
I295
sS'y0.40_y0.60_A2_pol3_p3'
p198
I137
sS'y0.40_y0.60_A2_pol3_p2'
p199
I136
sS'y0.40_y0.60_A2_pol3_p1'
p200
I135
sS'y0.40_y0.60_A2_pol3_p0'
p201
I134
sS'y0.60_y0.80_A0_pol3_p1'
p202
I13
sS'y0.60_y0.80_A0_pol3_p0'
p203
I12
sS'y0.60_y0.80_A0_pol3_p3'
p204
I15
sS'y0.60_y0.80_A0_pol3_p2'
p205
I14
sS'y2.50_y3.00_A4_pol4_p4'
p206
I311
sS'y2.50_y3.00_A4_pol4_p2'
p207
I309
sS'y2.50_y3.00_A4_pol4_p3'
p208
I310
sS'y2.50_y3.00_A4_pol4_p0'
p209
I307
sS'y2.50_y3.00_A4_pol4_p1'
p210
I308
sS'y3.50_y5.00_A1_pol4_p1'
p211
I122
sS'y1.40_y1.60_A4_pol4_p4'
p212
I291
sS'y1.80_y2.00_A0_pol3_p0'
p213
I36
sS'y1.80_y2.00_A0_pol3_p1'
p214
I37
sS'y0.80_y1.00_A0_pol3_p0'
p215
I16
sS'y1.80_y2.00_A0_pol3_p3'
p216
I39
sS'y1.80_y2.00_A4_pol4_p1'
p217
I298
sS'y0.60_y0.80_A3_pol4_p4'
p218
I201
sS'y1.20_y1.40_A3_pol4_p1'
p219
I213
sS'y1.40_y1.60_A3_pol4_p3'
p220
I220
sS'y1.20_y1.40_A2_pol3_p3'
p221
I153
sS'y1.20_y1.40_A2_pol3_p2'
p222
I152
sS'y1.20_y1.40_A2_pol3_p1'
p223
I151
sS'y1.20_y1.40_A2_pol3_p0'
p224
I150
sS'y3.50_y5.00_A4_pol4_p1'
p225
I318
sS'y1.80_y2.00_A4_pol4_p3'
p226
I300
sS'y3.50_y5.00_A4_pol4_p3'
p227
I320
sS'y3.50_y5.00_A4_pol4_p2'
p228
I319
sS'y1.60_y1.80_A1_pol4_p1'
p229
I97
sS'y1.60_y1.80_A1_pol4_p0'
p230
I96
sS'y1.60_y1.80_A1_pol4_p3'
p231
I99
sS'y1.60_y1.80_A1_pol4_p2'
p232
I98
sS'y1.60_y1.80_A1_pol4_p4'
p233
I100
sS'y1.60_y1.80_A0_pol3_p1'
p234
I33
sS'y1.60_y1.80_A0_pol3_p0'
p235
I32
sS'y1.60_y1.80_A0_pol3_p3'
p236
I35
sS'y1.60_y1.80_A0_pol3_p2'
p237
I34
sS'y3.50_y5.00_A0_pol3_p0'
p238
I52
sS'y3.50_y5.00_A0_pol3_p1'
p239
I53
sS'y3.50_y5.00_A0_pol3_p2'
p240
I54
sS'y3.50_y5.00_A0_pol3_p3'
p241
I55
sS'y2.00_y2.50_A0_pol3_p2'
p242
I42
sS'y2.00_y2.50_A0_pol3_p3'
p243
I43
sS'y2.00_y2.50_A0_pol3_p0'
p244
I40
sS'y2.00_y2.50_A0_pol3_p1'
p245
I41
sS'y0.00_y0.20_A0_pol3_p1'
p246
I1
sS'y0.00_y0.20_A0_pol3_p0'
p247
I0
sS'y0.00_y0.20_A0_pol3_p3'
p248
I3
sS'y0.00_y0.20_A0_pol3_p2'
p249
I2
sS'y3.00_y3.50_A3_pol4_p0'
p250
I242
sS'y3.00_y3.50_A4_pol4_p4'
p251
I316
sS'y0.80_y1.00_A2_pol3_p2'
p252
I144
sS'y3.00_y3.50_A3_pol4_p1'
p253
I243
sS'y2.00_y2.50_A2_pol3_p3'
p254
I169
sS'y3.00_y3.50_A3_pol4_p2'
p255
I244
sS'y1.80_y2.00_A3_pol4_p2'
p256
I229
sS'y3.00_y3.50_A3_pol4_p3'
p257
I245
sS'y1.80_y2.00_A3_pol4_p3'
p258
I230
sS'y1.80_y2.00_A3_pol4_p1'
p259
I228
sS'y0.80_y1.00_A0_pol3_p2'
p260
I18
sS'y0.80_y1.00_A1_pol4_p4'
p261
I80
sS'y0.80_y1.00_A1_pol4_p2'
p262
I78
sS'y0.80_y1.00_A1_pol4_p3'
p263
I79
sS'y0.80_y1.00_A1_pol4_p0'
p264
I76
sS'y0.80_y1.00_A1_pol4_p1'
p265
I77
sS'y3.00_y3.50_A1_pol4_p2'
p266
I118
sS'y3.00_y3.50_A1_pol4_p3'
p267
I119
sS'y3.00_y3.50_A1_pol4_p0'
p268
I116
sS'y3.00_y3.50_A1_pol4_p1'
p269
I117
sS'y3.50_y5.00_A1_pol4_p4'
p270
I125
sS'y1.80_y2.00_A0_pol3_p2'
p271
I38
sS'y3.00_y3.50_A1_pol4_p4'
p272
I120
sS'y0.80_y1.00_A2_pol3_p1'
p273
I143
sS'y1.80_y2.00_A2_pol3_p2'
p274
I164
sS'y1.80_y2.00_A2_pol3_p3'
p275
I165
sS'y1.80_y2.00_A2_pol3_p0'
p276
I162
sS'y0.80_y1.00_A0_pol3_p1'
p277
I17
sS'y0.20_y0.40_A0_pol3_p1'
p278
I5
sS'y0.20_y0.40_A0_pol3_p0'
p279
I4
sS'y0.20_y0.40_A0_pol3_p3'
p280
I7
sS'y0.20_y0.40_A0_pol3_p2'
p281
I6
sS'y0.80_y1.00_A4_pol4_p3'
p282
I275
sS'y0.80_y1.00_A4_pol4_p2'
p283
I274
sS'y0.80_y1.00_A4_pol4_p1'
p284
I273
sS'y0.80_y1.00_A2_pol3_p3'
p285
I145
sS'y0.80_y1.00_A4_pol4_p4'
p286
I276
sS'y0.40_y0.60_A1_pol4_p1'
p287
I67
sS'y0.40_y0.60_A1_pol4_p0'
p288
I66
sS'y0.40_y0.60_A1_pol4_p3'
p289
I69
sS'y0.40_y0.60_A1_pol4_p2'
p290
I68
sS'y1.40_y1.60_A4_pol4_p0'
p291
I287
sS'y0.40_y0.60_A1_pol4_p4'
p292
I70
sS'y1.40_y1.60_A4_pol4_p2'
p293
I289
sS'y1.40_y1.60_A4_pol4_p3'
p294
I290
sS'y3.50_y5.00_A1_pol4_p0'
p295
I121
sS'y1.40_y1.60_A2_pol3_p3'
p296
I157
sS'y1.00_y1.20_A0_pol3_p1'
p297
I21
sS'y1.00_y1.20_A0_pol3_p0'
p298
I20
sS'y1.00_y1.20_A0_pol3_p3'
p299
I23
sS'y1.00_y1.20_A0_pol3_p2'
p300
I22
sS'y1.60_y1.80_A4_pol4_p1'
p301
I293
sS'y3.50_y5.00_A1_pol4_p2'
p302
I123
sS'y3.50_y5.00_A3_pol4_p3'
p303
I250
sS'y1.60_y1.80_A2_pol3_p3'
p304
I161
sS'y1.60_y1.80_A2_pol3_p2'
p305
I160
sS'y1.60_y1.80_A2_pol3_p1'
p306
I159
sS'y3.50_y5.00_A1_pol4_p3'
p307
I124
sS'y3.50_y5.00_A4_pol4_p0'
p308
I317
sS'y1.40_y1.60_A4_pol4_p1'
p309
I288
sS'y1.60_y1.80_A3_pol4_p0'
p310
I222
sS'y1.40_y1.60_A2_pol3_p2'
p311
I156
sS'y1.20_y1.40_A3_pol4_p0'
p312
I212
sS'y3.50_y5.00_A4_pol4_p4'
p313
I321
sS'y1.20_y1.40_A3_pol4_p4'
p314
I216
sS'y1.80_y2.00_A4_pol4_p2'
p315
I299
sS'y0.20_y0.40_A4_pol4_p3'
p316
I260
sS'y0.00_y0.20_A1_pol4_p1'
p317
I57
sS'y0.00_y0.20_A1_pol4_p0'
p318
I56
sS'y0.00_y0.20_A1_pol4_p3'
p319
I59
sS'y0.00_y0.20_A1_pol4_p2'
p320
I58
sS'y0.00_y0.20_A1_pol4_p4'
p321
I60
sS'y1.40_y1.60_A2_pol3_p1'
p322
I155
s.