(dp0
S'A4_y1.20_y1.40_val'
p1
(lp2
F-0.3912699876110393
aF-0.3782460396689027
aF-0.3694584367027796
aF-0.3538850179060514
aF-0.3502636110349683
aF-0.343706971804447
aF-0.37499554035711075
aF-0.3516692510469825
aF-0.3781554930861886
aF-0.3833385093116165
aF-0.3662281682117493
aF-0.3494238557943254
aF-0.35526701761538143
aF-0.3613761152995902
aF-0.344766879210984
aF-0.33574985232818294
aF-0.28013389556850893
aF-0.23368567910884916
aF-0.230053257668065
aF-0.1453489414770664
asS'A0_y1.20_y1.40_val'
p3
(lp4
F0.011154471534940067
aF0.004898174444245947
aF0.001970623627134858
aF-0.0011445775744919125
aF0.02442498314473226
aF0.04564984734813619
aF0.045654666769101716
aF0.06435277421268489
aF0.07920690323411926
aF0.11355711457354253
aF0.15708407283509943
aF0.2312173262966511
aF0.31239520334035464
aF0.3168227006171548
aF0.3502371336773041
aF0.450357190830064
aF0.6255041951026603
aF0.7123542276224758
aF0.7725466993740135
aF0.9245573769880437
asS'A4_y0.60_y0.80_val_err'
p5
(lp6
F0.012971231093084599
aF0.008831372475455424
aF0.008689339034119604
aF0.00922090543889122
aF0.009910379375904875
aF0.010551999503252002
aF0.011370032115046915
aF0.012097714412681228
aF0.013039303330787061
aF0.013979261760175887
aF0.011087621621004221
aF0.012495902150904193
aF0.01404819569774522
aF0.015582267962028709
aF0.017467200609354302
aF0.010278289770031425
aF0.015897479455398607
aF0.023565964473432607
aF0.024538489400722747
aF0.047385556589741154
asS'A4_y4.50_y5.00_fit'
p7
(lp8
F-1.8538199885485542
aF0.011670368289308501
asS'A4_y1.80_y2.00_val'
p9
(lp10
F-0.6854191542002593
aF-0.6352250264562532
aF-0.6310054138411482
aF-0.6506276672179302
aF-0.6454774572676445
aF-0.6405085006937471
aF-0.6535513872426205
aF-0.6505240299557465
aF-0.6314500472759684
aF-0.6324935724687657
aF-0.6375740332732767
aF-0.6229195980698661
aF-0.6195619438758213
aF-0.6197366417934037
aF-0.6117791200432156
aF-0.5447871882779083
aF-0.4570773322963714
aF-0.41604253323766177
aF-0.3558063762790622
aF-0.3178841395355307
asS'A5_y1.20_y1.40_val'
p11
(lp12
F-0.0015675698769791022
aF-0.006403394407495966
aF-0.0029262959345389143
aF0.004404393239020443
aF-0.007057780927616398
aF0.0021256714505332253
aF-0.015704952847815135
aF-0.026216573458121263
aF-0.01057436627118435
aF-0.00807690742374165
aF0.007345234509119937
aF-0.0008618869238928703
aF0.01341498198142477
aF0.02416914306284221
aF-0.0099963251107758
aF-0.0038919815707497757
aF-0.01108145661832424
aF-0.02811429476369008
aF-0.013590142449666867
aF0.07109651420889294
asS'A4_y1.40_y1.60_val_err'
p13
(lp14
F0.013073215457243046
aF0.008897333479617518
aF0.008765092608952977
aF0.009329422528358286
aF0.009996248872292588
aF0.010711475827467334
aF0.011467409578011692
aF0.012329581342421146
aF0.01324157912511951
aF0.014162469174319858
aF0.011241173277818463
aF0.012706384488136897
aF0.01438175376274356
aF0.015804973406183868
aF0.017618460679926166
aF0.010388439843443717
aF0.01613242623761642
aF0.023036942830118128
aF0.024546690381955994
aF0.046084819634061226
asS'A3_y4.00_y4.50_fit'
p15
(lp16
F0.0
aF-0.03215004011299173
aF0.00025700410825924913
asS'A0_y1.80_y2.00_val_err'
p17
(lp18
F0.01565205706591563
aF0.01072083099764038
aF0.010616481318960624
aF0.011370370467414601
aF0.012189053483218663
aF0.013012191725172435
aF0.013943015250179682
aF0.014922105629796742
aF0.016114293751394306
aF0.017505238792021604
aF0.013831747785427624
aF0.015757101298831063
aF0.017822934455476256
aF0.019994219122699608
aF0.02252116597269024
aF0.013365715647293157
aF0.021277298826069553
aF0.03141747978450903
aF0.03423480193085141
aF0.06728411670028131
asS'A2_y0.60_y0.80_val_err'
p19
(lp20
F0.024537658197795572
aF0.016650821509253396
aF0.016403799565470535
aF0.017407260134171768
aF0.018746308181434638
aF0.020008979046409345
aF0.021616839002693296
aF0.023205191873563416
aF0.025069279496596954
aF0.027110648055829085
aF0.02154741760550283
aF0.02508746609297081
aF0.028415580485931777
aF0.03198557668284384
aF0.0361584901388383
aF0.02186171069681622
aF0.03533451758847652
aF0.05317722532355037
aF0.056999833982072895
aF0.11632177946386568
asS'A2_y1.80_y2.00_fit'
p21
(lp22
F0.0
aF0.001184192429572184
aF0.0005477944865555657
aF-8.485926570483423e-06
asS'A5_y1.80_y2.00_val_err'
p23
(lp24
F0.012002250828160897
aF0.008212099026713729
aF0.008155420987987194
aF0.008703821197144909
aF0.009400677865239192
aF0.010050419619672036
aF0.010782571297371943
aF0.011619998829365945
aF0.012590552475666506
aF0.013649058891392113
aF0.010797550752887684
aF0.012377602617330863
aF0.014127571816920113
aF0.01590071320392
aF0.017894205595137446
aF0.010847127649485047
aF0.0174851470182037
aF0.025898994546998993
aF0.028541672716184033
aF0.05542214582402614
asS'A3_y0.00_y0.20_val'
p25
(lp26
F-0.022722103377172904
aF-0.00618583358154692
aF-0.014959698566687886
aF-0.03522186384276919
aF-0.02266220859380225
aF-0.04856246772583774
aF-0.06106059536109947
aF-0.045418543811543
aF-0.05325769003839711
aF-0.06773794282140447
aF-0.066912734794168
aF-0.07279026428807543
aF-0.07025329141642242
aF-0.0444658251054435
aF-0.08343930121612024
aF-0.0568246501023624
aF-0.053642194699261805
aF-0.06097464513234411
aF-0.10086086867167887
aF-0.1842740935720957
asS'A5_y3.00_y3.50_val_err'
p27
(lp28
F0.007314157107245196
aF0.005085928478592871
aF0.00515075731657182
aF0.0055541146124926805
aF0.00602766804394748
aF0.0064961485589877495
aF0.007028172109174588
aF0.007617527011348814
aF0.008228829331867702
aF0.008994409548915613
aF0.007215090609446205
aF0.008379207826640938
aF0.009634444029052936
aF0.010959663154822386
aF0.012506038188991073
aF0.007815333940234108
aF0.01357932490811153
aF0.022270709962485303
aF0.02772996674075891
aF0.0750237107380763
asS'A2_y1.00_y1.20_val_err'
p29
(lp30
F0.024691667579391067
aF0.016597847790992222
aF0.016393025970706087
aF0.01749145522070353
aF0.018706290780505536
aF0.01983987921922159
aF0.02170672231111835
aF0.023321453301120985
aF0.02496966631211451
aF0.02722203451124803
aF0.02166894479204201
aF0.024859508230668927
aF0.028579207525646563
aF0.032270784060905916
aF0.03620125711254148
aF0.021789285043233537
aF0.03564369999958411
aF0.05254158017638811
aF0.05678867171635353
aF0.11211876919420388
asS'A7_y3.50_y4.00_fit'
p31
(lp32
F0.0
asS'A1_y0.40_y0.60_val_err'
p33
(lp34
F0.013689174217449925
aF0.009326144567588728
aF0.009151524301072182
aF0.009749943052286467
aF0.010465930661229394
aF0.01119413590533254
aF0.012044184196644844
aF0.012943424558792495
aF0.013812158654762603
aF0.015083041135854512
aF0.011851919755868212
aF0.01340684435338405
aF0.015282257168907298
aF0.017191821259195314
aF0.01913116556897652
aF0.011395088676716066
aF0.018123512289567482
aF0.026582959583333173
aF0.028185485577125243
aF0.05579635015741093
asS'A7_y1.60_y1.80_val'
p35
(lp36
F-0.003522298519418045
aF0.010119511420394746
aF0.013221422232712332
aF-0.0017377464609172175
aF-0.008670808023114991
aF0.003701273182044524
aF-0.0006493303573748628
aF0.028309531463477797
aF0.002352763940466118
aF-0.0016286983489772814
aF0.0021447745807890092
aF0.006399115934775142
aF-0.006049107010989704
aF0.012241915243209478
aF0.004186270248798216
aF-0.002654388955901567
aF0.0022120453699157414
aF-0.008910480635314294
aF0.02820736084731392
aF0.01765361839861583
asS'A0_y4.50_y5.00_val'
p37
(lp38
F-0.01493093037919946
aF-0.03443993496661399
aF-0.04962279553230789
aF-0.03207147021479739
aF-0.09803649128353385
aF-0.04126364888303346
aF-0.026147152031230674
aF-0.013267416629199495
aF-0.0198742594377773
aF0.1558359018939712
aF0.18442931445068722
aF0.30780771540007945
aF0.47729475191797327
aF0.7003121302063943
aF0.686372985182492
aF0.6748033626124463
aF0.4188243084459265
aF1.0880955822446081
aF0.0
aF0.0
asS'A5_y3.00_y3.50_val'
p39
(lp40
F-0.02237172308290908
aF-0.004962669538139449
aF0.001522710329547845
aF-0.0013155552530151025
aF-6.137873612139562e-05
aF-0.00665386233182557
aF-0.00258619229001816
aF-0.0036231529009545273
aF-0.000990392684823845
aF0.004926077909933505
aF-0.006128084112164644
aF-0.001951250854366787
aF-0.0025510521998992203
aF-0.005861838439718758
aF-0.010924782107283468
aF-0.01105606704530819
aF0.03226752948392156
aF-0.0019203425731656107
aF-0.0061792091333747025
aF0.02490269175933233
asS'A7_y3.50_y4.00_val_err'
p41
(lp42
F0.00719312047469186
aF0.005026376451666662
aF0.005133797733161942
aF0.005597077193583288
aF0.006098106623412131
aF0.0066051445407401405
aF0.007188708809554728
aF0.007840740786316275
aF0.008535580631434283
aF0.009320385713418233
aF0.0075386198041577585
aF0.008852429004470686
aF0.010326271996724368
aF0.011898434754795136
aF0.013824247532339724
aF0.009000565728204074
aF0.01708641400577451
aF0.030748303781886543
aF0.04599381730278066
aF0.17847282819236707
asS'A4_y4.00_y4.50_val_err'
p43
(lp44
F0.013733194215888433
aF0.009858730743406662
aF0.010316183945516574
aF0.011450082153234202
aF0.012677313583661809
aF0.013864900901731009
aF0.015338088371970942
aF0.01672116511629271
aF0.018445573035327217
aF0.020350545014408767
aF0.016618737168473473
aF0.019718485819603986
aF0.023283878867166104
aF0.02739627746296817
aF0.031843920461987266
aF0.02222766856611443
aF0.04816402716834708
aF0.10765918540744758
aF0.2456830480195929
aF2.8792682416685853
asS'A4_y3.50_y4.00_val_err'
p45
(lp46
F0.010129005181204064
aF0.007097496357996709
aF0.007249303229513763
aF0.007906524981262292
aF0.008578732402107608
aF0.009319960446966851
aF0.010109985844016421
aF0.010957814037648825
aF0.011850549862362182
aF0.013012546824668384
aF0.010408415079585676
aF0.01201306533318995
aF0.013830529908763099
aF0.015729288146091275
aF0.017769492863954947
aF0.011233188730979312
aF0.019960942410528863
aF0.034754902939625985
aF0.050113576293028594
aF0.19293983914314947
asS'A1_y1.20_y1.40_val'
p47
(lp48
F-0.018530354676891042
aF0.047775005106086316
aF0.0516389591739515
aF0.08138550354086002
aF0.09940364468829142
aF0.10146618874966223
aF0.10954514297593186
aF0.14306678031588396
aF0.1348985219202514
aF0.1525668315226759
aF0.13206128334120892
aF0.12388365671189333
aF0.1142714120937869
aF0.08717203072716137
aF0.07499547851578092
aF0.08830495940422838
aF0.02048981541237906
aF0.02808417558952792
aF0.025804738034975704
aF0.06208524859411535
asS'A0_y0.20_y0.40_fit'
p49
(lp50
F0.0
aF-0.0027843402163477415
aF0.0005221748446564249
aF-5.8828206065644935e-06
asS'A7_y2.50_y3.00_val'
p51
(lp52
F0.003890959373282387
aF-0.007870343889210915
aF0.00209016144480919
aF0.009828719038913601
aF-0.00197065998236101
aF0.008572289409156334
aF-0.0017284782874322695
aF0.0032387458277201887
aF-0.0068123183241538396
aF-0.003205585356361382
aF-0.006729469422749779
aF-0.004426994224691002
aF-0.00756475903508822
aF-0.0016782412496422277
aF-0.018783130636484388
aF-0.0007383529533334672
aF0.004219422928021887
aF0.0012322313405147384
aF-0.017282677166175833
aF0.055551362488602714
asS'A7_y1.80_y2.00_val_err'
p53
(lp54
F0.011003583287041804
aF0.007531870717265769
aF0.007439653711102626
aF0.0079389437626872
aF0.008568284100723736
aF0.009159210997905272
aF0.009817170565437742
aF0.010507929823683686
aF0.011409509184276207
aF0.012255855056031937
aF0.009728232637579602
aF0.011114914189696247
aF0.012621486489673487
aF0.014038807115251132
aF0.01580318938091096
aF0.009518682125851769
aF0.0151141974863981
aF0.022247369532402146
aF0.02418751005588826
aF0.047194568248991355
asS'A0_y1.60_y1.80_val_err'
p55
(lp56
F0.015809754373466305
aF0.010766782205762836
aF0.010665208126831732
aF0.01132082746116847
aF0.012127509768326139
aF0.013102697427871296
aF0.014016466187020208
aF0.015010503584402755
aF0.016281489233615852
aF0.01746893989363976
aF0.013758567395272179
aF0.015726048014903956
aF0.01777063327119996
aF0.01996066532135435
aF0.02242238790173141
aF0.013397233350964812
aF0.021323363923382774
aF0.031403095804240416
aF0.0334990336105269
aF0.06695821740589536
asS'A4_y1.40_y1.60_val'
p57
(lp58
F-0.4828472868830165
aF-0.47079427465140794
aF-0.4519085822731676
aF-0.45712959884485055
aF-0.45088647147848626
aF-0.44769743856197863
aF-0.42035774492841976
aF-0.4391192528234374
aF-0.4495777226141475
aF-0.44464967685947593
aF-0.43956297897298635
aF-0.443498151380192
aF-0.43149935004978474
aF-0.4211392001436088
aF-0.4026109090949844
aF-0.4044541757222296
aF-0.35483719948318404
aF-0.2880402332241484
aF-0.2529276884761304
aF-0.2315740635297114
asS'A6_y3.50_y4.00_fit'
p59
(lp60
F0.0
asS'A0_y2.00_y2.50_val'
p61
(lp62
F-0.002553001540140938
aF0.006909695272824047
aF0.009028218581897791
aF0.024679743867623945
aF0.017492780537358532
aF0.03609033622910716
aF0.06376001309257774
aF0.07089683791599607
aF0.09238065189082106
aF0.10516059621984586
aF0.15926899587679055
aF0.22072865536573485
aF0.28706085457632285
aF0.33176722505489215
aF0.36243296423257515
aF0.4539693710537049
aF0.592526998772583
aF0.7127738364659594
aF0.7986159001446115
aF0.8371114328609195
asS'A5_y2.50_y3.00_fit'
p63
(lp64
F0.0
asS'A7_y1.20_y1.40_val'
p65
(lp66
F-0.00963668561621939
aF-0.0011228487828874225
aF0.00620659527295655
aF-0.00538013146458158
aF-0.005026988155155529
aF-0.012553700871405645
aF0.006303446253983261
aF0.0014384314547178615
aF-0.00808086388217715
aF0.006888379775340511
aF0.013971362124813157
aF-0.005632470923353334
aF-0.004938751178449496
aF-0.00462040019603499
aF0.00961300701098536
aF-0.004689464046584805
aF0.0023781501235879067
aF-0.007571706606681418
aF-0.019347431762080453
aF0.02277433048388905
asS'A0_y1.00_y1.20_fit'
p67
(lp68
F0.0
aF0.0024339256622691596
aF-0.0002036592076638151
aF2.512375024544053e-05
aF-3.767569693618224e-07
asS'A0_y1.60_y1.80_fit'
p69
(lp70
F0.0
aF-0.0033696262280082934
aF0.0006619441695046059
aF-8.401708804995603e-06
asS'A4_y0.60_y0.80_fit'
p71
(lp72
F-0.1636462905087006
asS'A5_y2.50_y3.00_val_err'
p73
(lp74
F0.007415685394035846
aF0.005092977694690715
aF0.005092176519314482
aF0.005474685826852589
aF0.005883348347470464
aF0.006359274366957531
aF0.006839290268049375
aF0.007396840103695838
aF0.007993357302141435
aF0.00867731484568142
aF0.006903167288931826
aF0.007992746533436935
aF0.009030416257434967
aF0.01024091268859583
aF0.011667429234522452
aF0.007073730264739497
aF0.011737553309096156
aF0.018117568945366643
aF0.020368742788624373
aF0.04604140875438653
asS'A7_y2.00_y2.50_val_err'
p75
(lp76
F0.006888667817304881
aF0.004715140263168904
aF0.004706772238620916
aF0.00503275055357201
aF0.005390715768810582
aF0.005808435198758142
aF0.006253591099263863
aF0.006718508511159275
aF0.00723275305403279
aF0.007779553126600688
aF0.006156387354081162
aF0.007081994053676179
aF0.008018663775009927
aF0.008975436858072972
aF0.010068548248732382
aF0.0060198887999628106
aF0.00960431403377584
aF0.014126838301435476
aF0.015566813747549155
aF0.031640711636851455
asS'A4_y4.00_y4.50_fit'
p77
(lp78
F-1.9239058114135252
aF-0.010969169520513716
aF0.000989948604215217
aF-1.1233281140306679e-05
asS'A3_y3.50_y4.00_val'
p79
(lp80
F-0.03616675279123503
aF-0.09312028777506462
aF-0.13003930060384486
aF-0.1873277372710604
aF-0.2308926035886689
aF-0.2831120225850732
aF-0.3274309815617878
aF-0.3625400980348164
aF-0.4151930275629071
aF-0.4502807727065512
aF-0.4786453779218865
aF-0.5146761961956595
aF-0.5873762099364795
aF-0.6313931366114631
aF-0.6930976898931731
aF-0.8114221200633063
aF-1.0737588528403705
aF-1.26662018133191
aF-1.406228697262488
aF-1.505249559808112
asS'A3_y2.00_y2.50_fit'
p81
(lp82
F0.0
aF-0.017894626762448407
aF0.000440222535472861
aF-4.123326337137815e-06
asS'A2_y1.80_y2.00_val_err'
p83
(lp84
F0.024015925881880562
aF0.016443650870334434
aF0.01630314051399552
aF0.017404987039496216
aF0.01882785009114997
aF0.020100505988574376
aF0.021536240224116716
aF0.02326498633559556
aF0.025251531641216757
aF0.0272858708894011
aF0.02182282983851171
aF0.02505127122502699
aF0.028707856616776477
aF0.03239545996692378
aF0.03643549572558687
aF0.02185870120878448
aF0.03509032713812643
aF0.05216537975017416
aF0.05739720761912315
aF0.11433176015638784
asS'A2_y0.80_y1.00_fit'
p85
(lp86
F0.0
aF0.008148761295697415
asS'A5_y1.40_y1.60_val_err'
p87
(lp88
F0.01211495617690973
aF0.008276447559940081
aF0.008137846674865125
aF0.00872828849393368
aF0.009340639959318995
aF0.010065912380212054
aF0.010888178097006927
aF0.01160581520672939
aF0.012561334576646085
aF0.013584927092214587
aF0.010854645302449265
aF0.01238578625685569
aF0.01421966205673956
aF0.015970360292977184
aF0.017891840266887848
aF0.0108027364252125
aF0.017474422322084474
aF0.02611366957177557
aF0.028546341059679875
aF0.05666920356404107
asS'A3_y2.00_y2.50_val'
p89
(lp90
F-0.0126858942097644
aF-0.04483605236175308
aF-0.07519853056803419
aF-0.09690920903849123
aF-0.12419924023128168
aF-0.15276720937622187
aF-0.1799091106301201
aF-0.17721190970819758
aF-0.2114859154110534
aF-0.22690699879592174
aF-0.22206008983149797
aF-0.22850365241902174
aF-0.24526581120979643
aF-0.26700413081909286
aF-0.26613437405618345
aF-0.31073970610428825
aF-0.431389274583628
aF-0.5386451001572216
aF-0.7460325157598019
aF-0.97708433376021
asS'A1_y1.60_y1.80_val'
p91
(lp92
F0.03681644592266212
aF0.03797479221299603
aF0.07160945159909424
aF0.09619800081121456
aF0.12212496600918578
aF0.12415168309824502
aF0.15122561972128676
aF0.15442454038274592
aF0.1527087401625477
aF0.14623701619247334
aF0.16248890519416184
aF0.14016040791675097
aF0.14168595229547165
aF0.10384919824865625
aF0.10123047673929596
aF0.10300039141429355
aF0.04909484457510338
aF0.014117933279618026
aF0.049068796655776584
aF0.017657529748226347
asS'A0_y0.40_y0.60_val_err'
p93
(lp94
F0.016059956341570345
aF0.010901050290649627
aF0.010702016233912285
aF0.011352727858633817
aF0.012152585245211352
aF0.013024306198361124
aF0.01396273927666009
aF0.015019263463761813
aF0.016108872059533003
aF0.017400385216080783
aF0.013710149506044017
aF0.015616731296214218
aF0.017643777741706532
aF0.019999420346258668
aF0.02240031834712414
aF0.013426696838391454
aF0.021396471814750552
aF0.031439148263972254
aF0.03362905353008425
aF0.0669393211348444
asS'A2_y4.00_y4.50_fit'
p95
(lp96
F0.0
aF-0.003264993799160981
aF0.001194075345927052
aF-1.7795893471454918e-05
asS'A6_y1.00_y1.20_fit'
p97
(lp98
F0.0
asS'A6_y0.00_y0.20_val_err'
p99
(lp100
F0.013729114482126816
aF0.009320058997668038
aF0.009154169504612616
aF0.009672782969280383
aF0.01032503452939876
aF0.011046623964680697
aF0.01188269473798733
aF0.012759458759548765
aF0.013602263692111165
aF0.01486666928913457
aF0.011600858504713879
aF0.013206589445815283
aF0.014820598378317878
aF0.016763655564021884
aF0.018496707551943797
aF0.011004890972320807
aF0.017434008751111504
aF0.02504100840677376
aF0.026839874220410467
aF0.05307387995953919
asS'A2_y3.50_y4.00_val_err'
p101
(lp102
F0.015653779380478208
aF0.011003488452626187
aF0.011227912971141691
aF0.012290861228243286
aF0.013452495091895536
aF0.014542696245262976
aF0.01592756316994631
aF0.017316029871056415
aF0.01895084463674632
aF0.0207736503416053
aF0.01691758763494378
aF0.020082841272461693
aF0.02381343512523363
aF0.0277087021222858
aF0.03233385170137946
aF0.02079925922580824
aF0.04013751275787776
aF0.07421406105674376
aF0.10884488251058638
aF0.44045566788653095
asS'A1_y0.00_y0.20_fit'
p103
(lp104
F0.0
asS'A2_y4.00_y4.50_val'
p105
(lp106
F-0.019864080687177505
aF0.01407245221282322
aF0.03406755841914037
aF0.01778581335177321
aF0.06637136392740614
aF0.1033169372250699
aF0.12092219931722395
aF0.12622728326128066
aF0.17260517234393022
aF0.1746893091829848
aF0.34942530138936506
aF0.40437132426587935
aF0.5047246633804472
aF0.562559220434648
aF0.745397422018985
aF0.5756261176750365
aF0.6401625602105866
aF0.4797705911622267
aF0.8831282471146955
aF-5.662286747915929
asS'A7_y1.80_y2.00_val'
p107
(lp108
F-0.010883816684210894
aF-0.0032875397102538617
aF-0.008752467664247207
aF0.003583233286269554
aF0.002753850315666384
aF-0.01427596337508088
aF-0.0013537423421094783
aF-0.00415364725288359
aF0.005711340352799529
aF-0.03076774009460171
aF-0.006054032098290065
aF0.0026858448211377144
aF0.012653658540731782
aF0.005332355375026073
aF0.011231783174672716
aF0.021538779208615088
aF0.00884049428492205
aF-0.016892958128543727
aF-0.013689110960543345
aF0.05710686685472884
asS'A2_y2.00_y2.50_fit'
p109
(lp110
F0.0
aF0.000742520610117009
aF0.00048318237363148206
aF-6.657696585675834e-06
asS'A5_y4.50_y5.00_val_err'
p111
(lp112
F0.0234012611626119
aF0.017558973113239708
aF0.018978794555282202
aF0.02193461376935404
aF0.024444086481277594
aF0.027726086376898093
aF0.0314392054737878
aF0.03510231937935973
aF0.03925661671999897
aF0.045708211611571944
aF0.03930701201209084
aF0.05132027663267834
aF0.06144313600619993
aF0.08396402170195058
aF0.10383429422314448
aF0.10141419565094585
aF0.3964470903488137
aF2.45025130738497
aF0.0
aF0.0
asS'A0_y1.40_y1.60_val_err'
p113
(lp114
F0.01577978359913843
aF0.010781113688671436
aF0.010633819493530355
aF0.011380188063891416
aF0.012165196846314296
aF0.013042242297736147
aF0.014020994554344742
aF0.015053721327924425
aF0.01619789836768051
aF0.017426095151783248
aF0.013822577199254458
aF0.015712444972897085
aF0.01794926678127868
aF0.020132535440728152
aF0.022289672970917166
aF0.013406862792943591
aF0.021312095681806194
aF0.031303940116271564
aF0.0341886828705547
aF0.0666567876733823
asS'A6_y1.80_y2.00_val'
p115
(lp116
F0.02791964934016732
aF0.004412852170356294
aF0.012532164627850315
aF-0.004348882288090915
aF0.011678398630941096
aF0.016593618021057525
aF-0.004630954920425269
aF-0.014261007569643032
aF0.00275954048298828
aF0.005525814759191438
aF0.023932575595375618
aF0.007850473515493511
aF-0.014991886939410452
aF-0.009109338440935717
aF0.0016761269335859922
aF-0.002829355917338424
aF-0.004263680532383103
aF-0.03877875228298432
aF-0.02510470539931296
aF-0.07391035926172683
asS'A1_y0.80_y1.00_val_err'
p117
(lp118
F0.01362354133240531
aF0.009251647937703436
aF0.00918068292718523
aF0.00972178136083054
aF0.010405645646981503
aF0.011277841627214407
aF0.012088472567288075
aF0.012971888302334979
aF0.013949411239694412
aF0.015034475857388476
aF0.011850486216211722
aF0.01355728677399483
aF0.015292574756358665
aF0.01715865682610599
aF0.01911849965362271
aF0.011457193599274267
aF0.018214901469126292
aF0.0262853484835069
aF0.028764892513919723
aF0.05560828340625478
asS'A3_y1.40_y1.60_fit'
p119
(lp120
F0.0
aF-0.009879056953953885
aF0.00013903832793724698
asS'A2_y1.20_y1.40_val_err'
p121
(lp122
F0.02441075978808859
aF0.016580761362454358
aF0.016391776152734693
aF0.017454490404518828
aF0.018712758735361632
aF0.020146852355112637
aF0.021696635103510605
aF0.023323640493441718
aF0.025089244144170283
aF0.02741794436878891
aF0.021543119295954347
aF0.025058624831897247
aF0.028469755788610905
aF0.03233078965943732
aF0.0365038465157465
aF0.021930491676200835
aF0.03548686832727862
aF0.05262153627225376
aF0.056424063580735304
aF0.11510596136434403
asS'A2_y2.50_y3.00_val_err'
p123
(lp124
F0.014801757344875726
aF0.01020791880587373
aF0.010197457882312034
aF0.010970454969436366
aF0.011826677485170389
aF0.012709854153943214
aF0.013771641250524755
aF0.014833050198603053
aF0.016114945500941887
aF0.017424692678240237
aF0.013918332065912815
aF0.016112383951505497
aF0.018385640202663804
aF0.020799609533469158
aF0.023619904515660223
aF0.01432551460498251
aF0.023710101285563837
aF0.03632244448754522
aF0.0418810688958222
aF0.09149397393799068
asS'A5_y3.50_y4.00_val_err'
p125
(lp126
F0.007853583933579602
aF0.005477986988905389
aF0.005593997375390079
aF0.006120263371835661
aF0.006686692248905773
aF0.0072479175345180535
aF0.007885792286890224
aF0.008629765396412272
aF0.009483727853152301
aF0.01034625022956308
aF0.008396230033155318
aF0.009920283641679281
aF0.011578149925335235
aF0.013435448182668317
aF0.015665345758462332
aF0.01034540452834082
aF0.019880442837182866
aF0.035878371072805594
aF0.0548028616453255
aF0.2152945722902386
asS'A7_y4.50_y5.00_fit'
p127
(lp128
F0.0
asS'A0_y3.50_y4.00_val_err'
p129
(lp130
F0.010202350751473709
aF0.007167426918648369
aF0.007318277479299726
aF0.007986998762135778
aF0.008691483101818423
aF0.009437918282776568
aF0.010282189061817385
aF0.011146830946885393
aF0.012128138295755682
aF0.013294527407707485
aF0.010745462354550239
aF0.012603282989821114
aF0.014753710153026307
aF0.01700607502062938
aF0.019677764498322068
aF0.01278059463650313
aF0.024320571682323395
aF0.04399172362788564
aF0.06598501165628705
aF0.25962735740497733
asS'A3_y0.40_y0.60_fit'
p131
(lp132
F0.0
aF-0.005342553199303934
aF8.660137502821547e-05
asS'A1_y0.60_y0.80_val'
p133
(lp134
F-0.030861561708872227
aF0.026974511441540883
aF0.03860050049549696
aF0.06462527192758728
aF0.04284287843040132
aF0.07245056659966521
aF0.06616123483057183
aF0.10291659782343601
aF0.09127327671994859
aF0.10011224049433116
aF0.09114039724158385
aF0.0881928361597084
aF0.08222253429217272
aF0.06650280443113875
aF0.055272970886043
aF0.04345034232122482
aF-0.0023123173663281383
aF0.01674297844149679
aF0.011488031625487121
aF0.006156572980192845
asS'A4_y3.00_y3.50_fit'
p135
(lp136
F-1.461479816241651
aF0.00038355650472918223
aF0.00011944563255254434
asS'A7_y0.20_y0.40_val'
p137
(lp138
F0.008935507645934001
aF-0.0014571169736575104
aF-0.003677586481462269
aF-0.013839334105340403
aF0.0060668843681453396
aF-0.007651450167677
aF-0.005781252522083802
aF0.003628269616617069
aF0.002312941425730307
aF-0.002632899347212613
aF-0.0027469776112875634
aF0.004290955419277637
aF-0.005190846241793421
aF-0.0010608866699219864
aF0.002513733268132188
aF-0.011267022493370936
aF-0.006492338135322318
aF0.00952106993857311
aF0.005514943737046269
aF0.00889443382142843
asS'A0_y1.40_y1.60_val'
p139
(lp140
F0.005550638075681195
aF0.015051612723361186
aF0.00895101126113544
aF0.02833464837115883
aF0.031760756821841755
aF0.04648766879079388
aF0.059945670310618766
aF0.05686952275184866
aF0.10261424150200263
aF0.14139435397854158
aF0.16785762225499398
aF0.21084376068861513
aF0.24312884574235485
aF0.35015224993635896
aF0.3560171151995314
aF0.46109688613119293
aF0.6064013361250755
aF0.7515592768607782
aF0.8235488628827159
aF0.9831936481728072
asS'A7_y4.00_y4.50_val'
p141
(lp142
F-0.00026612431389867513
aF0.004312150837312418
aF0.0017547866383234943
aF0.010506751902175065
aF0.000767927906512121
aF0.0008775433555135071
aF-0.01821973066801115
aF0.009990781228002002
aF0.009004669917048415
aF0.01825451845073542
aF0.003121086937693774
aF-0.013072106938012001
aF0.007364433692468743
aF0.014160724823666378
aF0.0037896960268233157
aF-0.020067687307885877
aF0.06877260337458249
aF-0.02285855385255396
aF0.17447451148664025
aF-3.233772254884753
asS'A6_y4.50_y5.00_fit'
p143
(lp144
F0.0
asS'A7_y3.00_y3.50_fit'
p145
(lp146
F0.0
asS'A3_y1.00_y1.20_val_err'
p147
(lp148
F0.011285384327737135
aF0.007608821555532089
aF0.007532779304861901
aF0.008022066855982864
aF0.008586275161782552
aF0.009116430162792271
aF0.009983774175836346
aF0.010737957546157714
aF0.0115376540582741
aF0.012478708735881692
aF0.009982006479316121
aF0.011477128524501508
aF0.013132476479547359
aF0.014789673795643716
aF0.016769011605101365
aF0.01006636708068088
aF0.01649446418063603
aF0.0244208297621161
aF0.0265361073882901
aF0.053146946779043996
asS'A0_y1.80_y2.00_val'
p149
(lp150
F0.006364840385110979
aF0.004024124462026518
aF0.007632037855735523
aF0.005067396767103404
aF0.035849783768121694
aF0.0355406187039246
aF0.04177615613186193
aF0.07903879628491667
aF0.11486322104280053
aF0.10106726428509304
aF0.15058616435120672
aF0.19329691003764327
aF0.2803334371274484
aF0.31552242532917063
aF0.3317472216616116
aF0.4619454749892515
aF0.5993035070475233
aF0.6539169994296554
aF0.8311631156274789
aF0.8401600539918191
asS'A5_y1.40_y1.60_val'
p151
(lp152
F0.008300381603353594
aF0.008174328978458626
aF-0.0022677395782052176
aF0.009990199772037998
aF-0.007691989002877551
aF-0.003256338235682141
aF0.022182683173854797
aF0.0038880848630088154
aF0.005326833447741104
aF-0.007373373825212646
aF-0.007094170881552334
aF0.007538034434763348
aF0.014158096066116227
aF2.8715263167470387e-06
aF-0.01648984786272767
aF0.0010021284565006078
aF0.010423605157621757
aF-0.028815907413550675
aF-0.04706430645054056
aF-0.03256607384127419
asS'A1_y2.00_y2.50_fit'
p153
(lp154
F0.0
aF0.012203551336551955
aF0.0008034960366613386
aF-8.441666092651546e-05
aF2.208846538303846e-06
aF-1.8468436270677938e-08
asS'A0_y4.00_y4.50_val'
p155
(lp156
F0.0328359897503743
aF-0.0034467295893391347
aF-0.011085476291162154
aF-0.007599832323559622
aF-0.014431100378651727
aF-0.0050341759204857095
aF0.00028692210445771765
aF0.023704895470601103
aF0.07807911536829154
aF0.09265310815792864
aF0.15788843613319642
aF0.24577438488591033
aF0.31862803701998166
aF0.34433431476173315
aF0.3987717969605002
aF0.4391522923746683
aF0.6303268219329933
aF0.7111787095572268
aF0.6073486857246992
aF1.4093169976620916
asS'A3_y0.20_y0.40_val_err'
p157
(lp158
F0.011222081516347779
aF0.007644120759987619
aF0.007527447025445892
aF0.007970558397204695
aF0.008580124269575592
aF0.009216818547045235
aF0.009909211517084042
aF0.010689517299273064
aF0.011422188162770937
aF0.012369135021811343
aF0.00990492225980497
aF0.01133566581634257
aF0.013053984638588673
aF0.014741946764350415
aF0.016566775505968172
aF0.010033915305212204
aF0.01640271305412122
aF0.024408580535967284
aF0.026855817180864883
aF0.05378714437030685
asS'A3_y3.00_y3.50_val'
p159
(lp160
F-0.02500931889726274
aF-0.06780127594214334
aF-0.11397579585323203
aF-0.1537271570740678
aF-0.1976964946150691
aF-0.22763809862042736
aF-0.2626775291409594
aF-0.2989663007636021
aF-0.3371644639535608
aF-0.36757073832623444
aF-0.38428164993688235
aF-0.4076152670804829
aF-0.4460947626979297
aF-0.4652834999911766
aF-0.5257322500157108
aF-0.6203261351564181
aF-0.8731913466959176
aF-1.0787907464827258
aF-1.300382941062931
aF-1.5077848880084497
asS'A4_y0.40_y0.60_val_err'
p161
(lp162
F0.01301706555294575
aF0.008863739708452575
aF0.008682215579736856
aF0.00919552400247556
aF0.00984926470022774
aF0.01059078824975499
aF0.011298484601194397
aF0.012191187922330456
aF0.012980547382150149
aF0.014043076110597612
aF0.011020095141811575
aF0.01240409902066598
aF0.013959448479197686
aF0.015603855971212449
aF0.017400164949938138
aF0.010274034269097627
aF0.015929966225965833
aF0.023054160318898488
aF0.024174302514459955
aF0.046738555534940676
asS'A0_y2.50_y3.00_val'
p163
(lp164
F0.01707717840999604
aF0.016872660405587204
aF0.008807731693212632
aF0.024779220448006657
aF0.030975997988143326
aF0.04796445395086982
aF0.06384985124921876
aF0.06954627242430458
aF0.10324266804072982
aF0.11671746714377915
aF0.17730627217840467
aF0.22362789726688218
aF0.26409271741901086
aF0.31409625807333363
aF0.3767643172079318
aF0.4508442494400545
aF0.612996825466371
aF0.7216839155864115
aF0.8202524074854732
aF0.8791204963536319
asS'A4_y1.60_y1.80_val_err'
p165
(lp166
F0.013087691110747193
aF0.008933214789896152
aF0.008835247039153341
aF0.009379838623421935
aF0.01004577297869403
aF0.010803414430865198
aF0.011556349389931362
aF0.012391747725849236
aF0.013388878867222172
aF0.014331956053875196
aF0.011237548443489087
aF0.012770281924819988
aF0.014340617479703072
aF0.015877993477436615
aF0.017826510086608245
aF0.010499859413109647
aF0.01609680939772401
aF0.023581062307348733
aF0.024247849197718854
aF0.04780522813061578
asS'A4_y2.00_y2.50_val_err'
p167
(lp168
F0.008413713324460798
aF0.005756505799958327
aF0.0057268247384359445
aF0.0061083678516179575
aF0.006553537559985085
aF0.007057480892839143
aF0.007568258810622421
aF0.00812656197130096
aF0.008704079355617917
aF0.009368128460968017
aF0.007360379880051108
aF0.00837657780533067
aF0.009363878427021166
aF0.010431308140894192
aF0.011629965678290534
aF0.006788584916339824
aF0.010527917449373807
aF0.015104026163660526
aF0.01612974203139487
aF0.03280114372318988
asS'A6_y0.40_y0.60_val_err'
p169
(lp170
F0.013698827087167341
aF0.009355455523614106
aF0.009148206378002927
aF0.009660470036814025
aF0.010357391491716906
aF0.01115816605826415
aF0.011853541498819857
aF0.012771493184179921
aF0.013705437846146189
aF0.014786332588509499
aF0.011662672299078051
aF0.013169452979863827
aF0.014802839432098045
aF0.01657653132566805
aF0.018597400050459702
aF0.011045841453631028
aF0.01714852702479442
aF0.02506904777374019
aF0.026406594958233682
aF0.0503331185337195
asS'A4_y0.60_y0.80_val'
p171
(lp172
F-0.17737065411230413
aF-0.17997747194864727
aF-0.17206803268745566
aF-0.14755314374265824
aF-0.15968570266835286
aF-0.16342069631794037
aF-0.14999260658110689
aF-0.18092122524335907
aF-0.16913853675479662
aF-0.16574488723557382
aF-0.15210609634287942
aF-0.18104922803997345
aF-0.14771345237140596
aF-0.15867967105039266
aF-0.17305737868605645
aF-0.14530941203628298
aF-0.15451154219562419
aF-0.13075862149217632
aF-0.12233771408355097
aF-0.17855057388184511
asS'A3_y1.60_y1.80_fit'
p173
(lp174
F0.0
aF-0.01023614439362347
aF0.00013351945237041838
asS'A1_y0.80_y1.00_val'
p175
(lp176
F0.03356846991672274
aF0.009096128891940912
aF0.021779750507152446
aF0.06044053171354081
aF0.06884503454728726
aF0.09697502500269879
aF0.10698709367789767
aF0.12063116642548326
aF0.11711970659263575
aF0.10805412304604019
aF0.10776117367963975
aF0.0983595768831676
aF0.09419426060136102
aF0.05457459575907788
aF0.07971017557355504
aF0.037283217246145625
aF0.006212897346679671
aF0.02290555265596998
aF-0.010119880009867398
aF-0.0697156168150788
asS'A1_y1.20_y1.40_val_err'
p177
(lp178
F0.013523706832678733
aF0.00929314083992825
aF0.009164424500455832
aF0.00980391535307751
aF0.010473713119701878
aF0.011153943899158362
aF0.012029762357538654
aF0.012959799204062044
aF0.013932516277692009
aF0.015160540948132462
aF0.011809786355554653
aF0.013548348108285795
aF0.015264407933603617
aF0.017315728031604822
aF0.019283256082784198
aF0.011447728247193655
aF0.018130477475368154
aF0.02661496211003689
aF0.028334200415013628
aF0.05593075824923959
asS'A0_y0.80_y1.00_fit'
p179
(lp180
F0.0
aF-0.0018883606098945016
aF0.000550030639530661
aF-6.458148319930161e-06
asS'A3_y1.00_y1.20_fit'
p181
(lp182
F0.0
aF-0.008759343445082474
aF0.00023220715761598787
aF-1.905264057618344e-06
asS'A5_y1.40_y1.60_fit'
p183
(lp184
F0.0
asS'A5_y0.80_y1.00_val'
p185
(lp186
F0.005174093907588891
aF0.016224793385353407
aF0.0030722547831278342
aF0.003932981941196193
aF-0.0014291165046484721
aF0.025314423359876315
aF-0.012453523376292625
aF-0.008673518630485091
aF-0.003686299122169771
aF-0.02698711902871088
aF0.029555051935703708
aF-0.0023188814981465146
aF0.02265070354723236
aF-0.014329178046949562
aF-0.019848919907151034
aF-0.002109436154433359
aF0.009264182920035502
aF-0.002795938635981955
aF0.023448575236306536
aF-0.0026859115723486884
asS'A2_y0.00_y0.20_fit'
p187
(lp188
F0.0
aF0.004768276488582662
aF6.897507765253434e-05
asS'A5_y1.80_y2.00_val'
p189
(lp190
F-0.015287730370737346
aF-0.008165124197153966
aF-0.009085384780278141
aF-0.001494737766128907
aF0.001663441294716775
aF0.0019443581588687586
aF0.0011868502629846964
aF0.004203683689452655
aF0.0014297645421365924
aF-0.0037821256420874617
aF0.006923443676542004
aF-0.008573539515221046
aF0.0007283537602485057
aF0.013512143301371137
aF0.0281915329282626
aF-0.005394239723051866
aF-0.00232406507549129
aF0.00802892853421293
aF-0.06975788928629853
aF-0.04904688523902038
asS'A7_y0.60_y0.80_fit'
p191
(lp192
F0.0
asS'A0_y1.60_y1.80_val'
p193
(lp194
F0.006203092248532227
aF0.0024386634928763263
aF0.008550754595031778
aF0.0170210714238398
aF0.025032445049483883
aF0.02738140195199588
aF0.049899041734294526
aF0.030852504597121983
aF0.0771485048770446
aF0.1159359848856588
aF0.17741723716949823
aF0.19405178947087465
aF0.26873655990502604
aF0.35877662714119984
aF0.35200401769436274
aF0.43435125625041415
aF0.5978658454083164
aF0.6484557394950384
aF0.7781578683808309
aF0.8509682009166436
asS'A3_y1.20_y1.40_val_err'
p195
(lp196
F0.011144346148186527
aF0.007624002039648902
aF0.007527582418820578
aF0.008052145801264475
aF0.008607793813038096
aF0.009212053814044479
aF0.009947910148993757
aF0.010684877026631612
aF0.011553288028934152
aF0.012577895197776889
aF0.009909522336527102
aF0.011513312487289644
aF0.013131373891721528
aF0.014958146638761048
aF0.016800177290935
aF0.010102974925191214
aF0.016371385388138166
aF0.024324988936367167
aF0.026279280434743382
aF0.05391877405560745
asS'A2_y0.00_y0.20_val_err'
p197
(lp198
F0.024687443539501707
aF0.016739410257325938
aF0.016379756466572564
aF0.017436684571890546
aF0.018615563680841152
aF0.020009593122150122
aF0.021474766236487985
aF0.023241986205301372
aF0.024944632028813977
aF0.027075686769636988
aF0.02142307717195539
aF0.024741165075378234
aF0.0283227398311078
aF0.03220716708401793
aF0.03604547612835939
aF0.021809598996347313
aF0.03526649754043959
aF0.052647238356844095
aF0.05659000253894805
aF0.11312167816421333
asS'A6_y0.00_y0.20_val'
p199
(lp200
F-0.017247789583690956
aF-0.011424374451109772
aF-0.00965859814156792
aF-0.0029288603030225044
aF-0.0018954898910978882
aF0.0025407066830422467
aF0.013012726700921871
aF-0.0011042094765111503
aF-0.008114066826375969
aF0.020991311988850313
aF-0.0035228349300382147
aF0.0024749526212297338
aF0.005794383504493062
aF0.011500665866472817
aF0.04433520550319144
aF0.0012713464456719661
aF0.01916061534731021
aF0.017489601609880903
aF-0.0076152497471896246
aF0.039943652498164256
asS'A2_y1.00_y1.20_fit'
p201
(lp202
F0.0
aF-0.0005367926415050517
aF0.0005544118081738415
aF-7.827327442110716e-06
asS'A3_y1.80_y2.00_val'
p203
(lp204
F-0.02307032348311302
aF-0.0357708710182082
aF-0.0686003640877964
aF-0.0828949765737456
aF-0.11300858956528717
aF-0.125220094065997
aF-0.12761254419988263
aF-0.15046791161238032
aF-0.16018555183200736
aF-0.1663835210279793
aF-0.17287212641877864
aF-0.1947286458861244
aF-0.21683424469422324
aF-0.21392316492166605
aF-0.2298123486696048
aF-0.24699964127999255
aF-0.3065828993976879
aF-0.3345450870236641
aF-0.5865834824220586
aF-0.7722509571776616
asS'A2_y2.50_y3.00_val'
p205
(lp206
F0.0011112034811329432
aF0.003311500713836441
aF0.016798904855554367
aF0.020471069025785212
aF0.055058675260169755
aF0.04700499779597046
aF0.07239906478683839
aF0.08478141888145496
aF0.09914512969629148
aF0.13974446288423373
aF0.19293361618260058
aF0.24294247123798612
aF0.26506837067194755
aF0.34780936326936723
aF0.38007330886839547
aF0.39706173144800994
aF0.5947461875860881
aF0.5942418167061525
aF0.6793261344349275
aF0.626348176598573
asS'A3_y4.50_y5.00_val_err'
p207
(lp208
F0.021491973720190013
aF0.016146766782793448
aF0.01746221698192997
aF0.020297234696722278
aF0.02288041722050935
aF0.02639530903276582
aF0.029973222188958808
aF0.03423298581819137
aF0.03962488376437822
aF0.04624060657752125
aF0.0413494512312158
aF0.05650469523813915
aF0.07241480995584197
aF0.09847778718452743
aF0.11809762169393646
aF0.10801686777243977
aF0.40167753452069527
aF1.9565046062833777
aF0.0
aF0.0
asS'A7_y1.60_y1.80_fit'
p209
(lp210
F0.0
asS'A5_y0.40_y0.60_val_err'
p211
(lp212
F0.012258892538629123
aF0.008354682082108052
aF0.008200854222271545
aF0.008699201200782224
aF0.009351734511250081
aF0.009993367035101583
aF0.010755926014610048
aF0.011508213515971316
aF0.012415244210966262
aF0.013485256683074293
aF0.010665369265453362
aF0.012207236423244618
aF0.013970483079780964
aF0.015878055640596626
aF0.01787575491478837
aF0.010841889144846233
aF0.017533382495671733
aF0.025971830065991
aF0.027963601271217327
aF0.05536078455925472
asS'A7_y0.40_y0.60_fit'
p213
(lp214
F0.0
asS'A1_y1.40_y1.60_fit'
p215
(lp216
F0.0
aF0.018167924084241144
aF-0.0006330641951052176
aF6.016355445705629e-06
asS'A1_y3.00_y3.50_val'
p217
(lp218
F0.021905793452052957
aF0.05439784079890281
aF0.08248615409486867
aF0.11643334575921631
aF0.14108452989006848
aF0.1482421278870065
aF0.18130799361934122
aF0.1969872933601126
aF0.22085463320264473
aF0.2343184726669119
aF0.2450729511560445
aF0.22853752404332436
aF0.20670357383942342
aF0.18303379676954684
aF0.194773739102154
aF0.20092547702180832
aF0.19898849105154615
aF0.23624018202031005
aF0.2029376620940986
aF0.3275045283890675
asS'A1_y4.50_y5.00_fit'
p219
(lp220
F0.0
aF0.003996688542113325
aF0.0035336966000095588
aF-0.00013272124813628775
aF1.3062163604684485e-06
asS'A1_y1.60_y1.80_val_err'
p221
(lp222
F0.013478239343912183
aF0.009241023369887292
aF0.009121997780411647
aF0.009717421345975119
aF0.010469023493474144
aF0.011206064654378088
aF0.01205470610174906
aF0.01294455173473564
aF0.014071422134875151
aF0.015040119755266614
aF0.011911259412732793
aF0.013528819938909276
aF0.015403444403585228
aF0.01720753951064054
aF0.019293686301004576
aF0.011527777959519777
aF0.017906831707054118
aF0.026956088682831256
aF0.028106941263687072
aF0.057529424472032714
asS'A6_y2.00_y2.50_fit'
p223
(lp224
F0.0
asS'A3_y0.80_y1.00_fit'
p225
(lp226
F0.0
aF-0.006084224004608008
aF9.127399971022715e-05
asS'A4_y0.40_y0.60_fit'
p227
(lp228
F-0.11194516890493555
asS'A0_y0.60_y0.80_fit'
p229
(lp230
F0.0
aF-0.0036907200588705558
aF0.0006012792194002893
aF-6.883250573044744e-06
asS'A7_y2.50_y3.00_fit'
p231
(lp232
F0.0
asS'A4_y3.50_y4.00_fit'
p233
(lp234
F-1.792601375129627
aF0.0018240666525477789
aF0.0001486055373282236
asS'A3_y1.20_y1.40_fit'
p235
(lp236
F0.0
aF-0.00848618334866269
aF0.00012685071238603728
asS'A4_y2.00_y2.50_val'
p237
(lp238
F-0.8703122266780485
aF-0.8586294751803621
aF-0.854157441565348
aF-0.8398160032164784
aF-0.8351124988607838
aF-0.8524379786478699
aF-0.8395775633574345
aF-0.8324139352819951
aF-0.8311282304407372
aF-0.8262327248453392
aF-0.8356727846116254
aF-0.8052988931746707
aF-0.796169287936859
aF-0.7691944614416957
aF-0.7759658418629108
aF-0.687492572445951
aF-0.6003737810043895
aF-0.5197308023310968
aF-0.41717770666130777
aF-0.37463518295407666
asS'A6_y2.00_y2.50_val_err'
p239
(lp240
F0.008388045378784063
aF0.0057459065057278045
aF0.005737140940414404
aF0.006113888456718065
aF0.006552418565725676
aF0.007050857702423979
aF0.0075802162955674705
aF0.008143263342690759
aF0.008738478113357316
aF0.009380282612953938
aF0.007379827895719777
aF0.008433851382017825
aF0.009522493958706415
aF0.01058111428179489
aF0.011880655618332969
aF0.007017770541722517
aF0.011005422374294705
aF0.015953465358229106
aF0.01739209342759395
aF0.03512419533151817
asS'A2_y2.00_y2.50_val_err'
p241
(lp242
F0.015023085774045729
aF0.010298308946345086
aF0.01027519367396366
aF0.01103153647237004
aF0.01180683137641033
aF0.012746764328101146
aF0.013822999424298054
aF0.014851154938970783
aF0.01597120565179122
aF0.01734981221909597
aF0.013753755241591318
aF0.016016832884681587
aF0.01820348785053485
aF0.020599941991391903
aF0.02307557615204534
aF0.013907487890361041
aF0.0224769788719015
aF0.03364045291853331
aF0.03697825234326743
aF0.07650691983345115
asS'A2_y4.50_y5.00_val'
p243
(lp244
F-0.0017409156988931328
aF-0.014538323533349707
aF0.011623622625208734
aF0.05102057632398725
aF0.012857704264653089
aF0.19529659592055434
aF0.2289019029271695
aF0.25348618104284354
aF0.40014198073514956
aF0.3420421473435558
aF0.7362282078854375
aF0.9092313109319267
aF1.3175997283251109
aF1.6548986348320311
aF1.3056522731317517
aF0.9589177514351828
aF0.7556799767876027
aF2.4809532984025946
aF0.0
aF0.0
asS'A6_y1.20_y1.40_fit'
p245
(lp246
F0.0
asS'A1_y0.80_y1.00_fit'
p247
(lp248
F0.0
aF0.007293949701311919
aF0.00021417103868316776
aF-1.9178901084183613e-05
aF2.458043241061519e-07
asS'A4_y2.50_y3.00_val_err'
p249
(lp250
F0.008586257153123977
aF0.005901752747146732
aF0.005911454544991963
aF0.006317023543953556
aF0.0067941686741630055
aF0.007294139150821108
aF0.007845039220902916
aF0.008460968718452134
aF0.009067914824987177
aF0.009816407272793377
aF0.007700101789325496
aF0.008771737217933104
aF0.009840509377876483
aF0.010915963592787906
aF0.012207811868511123
aF0.007189557228331327
aF0.011233479227835606
aF0.016561445934171422
aF0.018161377334555705
aF0.039544121151401754
asS'A2_y1.60_y1.80_val'
p251
(lp252
F-0.021522834905058255
aF0.02604242532394593
aF0.015235113942267054
aF0.021050514808378756
aF0.06021938053691656
aF0.03682691199005375
aF0.07283955644250739
aF0.10500616862895243
aF0.14899747718832787
aF0.09294949324775338
aF0.19035313343938165
aF0.20767428080203315
aF0.25247262456409103
aF0.33822659343395206
aF0.31589644000596057
aF0.40174011811202015
aF0.47307754096892796
aF0.5615566942008905
aF0.7141195286514183
aF0.7828699349114298
asS'A1_y2.00_y2.50_val'
p253
(lp254
F0.022976840493644114
aF0.04679947488656985
aF0.07169874162836488
aF0.10633731657591337
aF0.10729573014142443
aF0.15329383379615957
aF0.16592801014773914
aF0.17062956600532242
aF0.19430909469410698
aF0.19876113558888422
aF0.1786512040403005
aF0.160802167620761
aF0.14969194041106748
aF0.1347523620804694
aF0.14079575934623728
aF0.10052910250677945
aF0.09826680185940932
aF0.058804578367759534
aF0.0784849607361976
aF0.11700970192731443
asS'A4_y4.00_y4.50_val'
p255
(lp256
F-1.9393208105398356
aF-1.9505085103631294
aF-1.952576749184749
aF-1.9460487143077163
aF-1.9518990460323888
aF-1.9356612264179052
aF-1.9291056442284513
aF-1.914306368479417
aF-1.882612246060722
aF-1.85964543480472
aF-1.8051499516364604
aF-1.7307680370530687
aF-1.664800275636311
aF-1.5965294292510885
aF-1.5144408370567788
aF-1.4041319278678062
aF-1.1180493992047145
aF-0.87461194582671
aF-1.0728537773500233
aF-2.035950098538924
asS'A1_y2.50_y3.00_val_err'
p257
(lp258
F0.00825427464187316
aF0.005686706620906503
aF0.005696904327087472
aF0.00610651423727746
aF0.006598193041165099
aF0.007086165372118418
aF0.0076496982599435215
aF0.00824067471629336
aF0.008894523821230191
aF0.009642337627578795
aF0.007634550717057343
aF0.008778524717540087
aF0.00989589482240992
aF0.011090925029826915
aF0.01250820480189812
aF0.00750764544095004
aF0.012226002175622207
aF0.018408911362440553
aF0.020567756490325224
aF0.045757526414557055
asS'A5_y1.60_y1.80_fit'
p259
(lp260
F0.0
asS'A1_y4.00_y4.50_val_err'
p261
(lp262
F0.011497430775892355
aF0.008244282504757424
aF0.008649309700595041
aF0.009607327605465076
aF0.010683233992654827
aF0.01175109847966396
aF0.0130597427609443
aF0.014240382714209576
aF0.016021486940808752
aF0.01777915922818455
aF0.014839879996981472
aF0.018043494795236686
aF0.02156480258423796
aF0.025416218889228515
aF0.03072737344173609
aF0.02179348465012134
aF0.04987792685377739
aF0.1145802193252125
aF0.29301014607280385
aF2.1274401454770784
asS'A3_y3.50_y4.00_fit'
p263
(lp264
F0.0
aF-0.030290819057952556
aF0.00046784952221433015
aF-3.730268537234028e-06
asS'A2_y0.40_y0.60_val_err'
p265
(lp266
F0.024564046294515987
aF0.016662512955123172
aF0.01636122808173307
aF0.017449953205121743
aF0.01868824400513247
aF0.019942250731779392
aF0.021519462933708437
aF0.023023286715082775
aF0.025043005587577372
aF0.02711511737329172
aF0.021573067228456148
aF0.024845457079021343
aF0.028194973329120562
aF0.032330310211176626
aF0.0361638755423436
aF0.021831165877125913
aF0.03527017215930541
aF0.05242052278216209
aF0.05629847818008606
aF0.11326268163331706
asS'A3_y0.60_y0.80_fit'
p267
(lp268
F0.0
aF-0.005786387573834539
aF9.656552840163349e-05
asS'A3_y0.00_y0.20_val_err'
p269
(lp270
F0.011267475858542368
aF0.00766901678019921
aF0.007541248689753713
aF0.008033936924194022
aF0.008556240198088212
aF0.009198814511441316
aF0.009879836071752272
aF0.010628702457142942
aF0.0114554288451485
aF0.01241297908408872
aF0.00985884951684941
aF0.011345060016931741
aF0.012917001570954816
aF0.014784653841872846
aF0.016610321909035292
aF0.010062940700237956
aF0.01635952122856382
aF0.024375994755725643
aF0.026327509048948646
aF0.052767149561121725
asS'A3_y0.80_y1.00_val_err'
p271
(lp272
F0.011187900856753332
aF0.007650612747986438
aF0.0075289063431543445
aF0.007999755989318917
aF0.008611024498563576
aF0.009238265064047369
aF0.009940990636347548
aF0.01073979287778433
aF0.011570625768407065
aF0.012535517268113965
aF0.00990216868893994
aF0.011488615122082194
aF0.01309129527967385
aF0.01484954243485839
aF0.016627410525387014
aF0.010102054650799677
aF0.01636225215709637
aF0.024101117086035684
aF0.026557223395346816
aF0.05299090525721304
asS'A6_y1.40_y1.60_val'
p273
(lp274
F0.0006406590118439988
aF-0.002992401890283973
aF-0.0028150730246911354
aF-0.0033478049822936854
aF0.0012000936381059595
aF0.003068351846988742
aF-0.00913280230859368
aF0.012935974418730865
aF0.029463997167095326
aF-0.0010018735989100332
aF0.006312737010134185
aF0.010457581130702163
aF0.006172443094119231
aF0.022935512966296662
aF-0.01132920915554788
aF0.028110340514386017
aF0.022193322965937703
aF0.007088547275284633
aF0.02322525411083894
aF-0.02246634473488117
asS'A5_y1.60_y1.80_val_err'
p275
(lp276
F0.012111590765881346
aF0.008257848441140957
aF0.008191434707417017
aF0.008716963177431246
aF0.009327760029579003
aF0.010045114531485875
aF0.010794905452415692
aF0.011566318897103434
aF0.012541727057924749
aF0.013573613525308394
aF0.010837514405814035
aF0.012308494351686938
aF0.014106970137917639
aF0.015896798357230846
aF0.01793982462673377
aF0.010822004476460851
aF0.017442716929028008
aF0.02584740034761479
aF0.027819864164866998
aF0.055959939654091406
asS'A1_y1.80_y2.00_val'
p277
(lp278
F0.0166936282220657
aF0.04004679765978444
aF0.06793734996583993
aF0.07345330592065154
aF0.11103338129504364
aF0.12777000262017105
aF0.1498480483225133
aF0.18406842762499287
aF0.18157203711202294
aF0.17858522955490203
aF0.1584776372029469
aF0.1659358320452706
aF0.13821074316916326
aF0.08687971128220182
aF0.08841199024601969
aF0.09191959417821916
aF0.05096506998433856
aF0.014897745246393401
aF0.09523593264547121
aF0.07626854268461083
asS'A5_y0.60_y0.80_val'
p279
(lp280
F-0.0032584890158741026
aF-0.005727423762988086
aF-0.0029711092367834535
aF-0.0073164394213627556
aF-0.007831901969879424
aF0.008476104340954879
aF0.011515316684830256
aF0.012168157543672115
aF-0.02934028770324694
aF-0.014583102505126998
aF0.012276326176484857
aF-0.014674341067824713
aF0.015396151005971397
aF0.0003300211077179957
aF0.006736516870414204
aF-0.021185118947035564
aF-0.02928309939439716
aF-0.011733873911544289
aF-8.666942436299134e-05
aF-0.054922495880031987
asS'A6_y3.00_y3.50_val_err'
p281
(lp282
F0.00820548830664732
aF0.005673524779202009
aF0.005712911594943414
aF0.006158784194974918
aF0.006660767928823374
aF0.007192430774066688
aF0.007755173456326127
aF0.008351099104820459
aF0.009022203674328702
aF0.009763704257361203
aF0.007786768222234254
aF0.008944248807253969
aF0.010177899650958987
aF0.011537113082227868
aF0.01298202173660601
aF0.00790993343472594
aF0.013373496322022092
aF0.02104662677689945
aF0.026325541206863912
aF0.06831047126035245
asS'A1_y0.20_y0.40_val'
p283
(lp284
F0.014382482921861136
aF0.015372369443756122
aF0.01285548485583903
aF0.013022467179231974
aF0.03646165516352669
aF0.018710213032801255
aF0.05329515837110154
aF0.06534907336888418
aF0.04023357702732524
aF0.05694926297769455
aF0.043690645654029026
aF0.036389587617062416
aF0.05348227533725161
aF0.039274718796882255
aF0.023084239114430933
aF0.025677229253894734
aF0.020962406647147366
aF-0.005403411476501935
aF0.0022343097162633315
aF0.04975101917223054
asS'A2_y0.20_y0.40_val'
p285
(lp286
F-0.011340232109942516
aF-0.018896608253960178
aF0.009970597643115
aF0.01408890614631273
aF0.03573199026652466
aF0.0802454579629475
aF0.02770310563279745
aF0.07618796763719286
aF0.04186799826342502
aF0.07225190386903167
aF0.1640929596723016
aF0.16580813030904754
aF0.23559760593269477
aF0.32457365773754193
aF0.28726491124547493
aF0.4137310555415651
aF0.5442242910544759
aF0.6418184911455211
aF0.8036616475470603
aF0.7670300850564369
asS'A1_y0.40_y0.60_fit'
p287
(lp288
F0.0
aF0.006431261823847734
aF-0.0001258603213292733
asS'A6_y4.50_y5.00_val_err'
p289
(lp290
F0.026386886322953287
aF0.019764410608307758
aF0.021279684974489482
aF0.02434512750681772
aF0.02763512704586308
aF0.030870473510790853
aF0.03468441601272473
aF0.038719455912566966
aF0.04415913517897455
aF0.05003310307469398
aF0.04165496194188121
aF0.05413087468935367
aF0.06547749477620193
aF0.08217652456354803
aF0.11131829860409741
aF0.10081378248064174
aF0.3414282114018987
aF2.2618549667284356
aF0.0
aF0.0
asS'A1_y4.00_y4.50_fit'
p291
(lp292
F0.0
aF0.023019473490680425
aF-0.0004595299049385444
aF3.1359609163164094e-06
asS'A6_y3.00_y3.50_fit'
p293
(lp294
F0.0
asS'A3_y1.60_y1.80_val_err'
p295
(lp296
F0.011065736981182378
aF0.007577629755411143
aF0.007508083163658815
aF0.007993133791985567
aF0.008605472236917606
aF0.009235712586514563
aF0.00996265990028852
aF0.010692471992152428
aF0.011685625876328331
aF0.012559431349755327
aF0.010043703779607548
aF0.0114930312010397
aF0.013155054366228824
aF0.014936189567715178
aF0.016739440969726384
aF0.010122841832191046
aF0.016250591868753033
aF0.02445436489210525
aF0.026355571577325296
aF0.0541863886673715
asS'A2_y3.00_y3.50_val'
p297
(lp298
F-0.006577069301806454
aF0.04131233341007579
aF0.03746332823161391
aF0.03746993565726669
aF0.04080126569606538
aF0.04555332159713716
aF0.07363457096007603
aF0.10381463965033
aF0.12661879284549812
aF0.180832577717171
aF0.17768437612393753
aF0.22225158972924192
aF0.3190581952543378
aF0.3480709872605472
aF0.35930229846813555
aF0.44600113953132503
aF0.534318170649356
aF0.5945159032715026
aF0.7195429120589943
aF0.7379330129331548
asS'A5_y0.40_y0.60_val'
p299
(lp300
F-0.010491657905509303
aF-0.004871576866468423
aF0.00842802789331624
aF0.011208558580166988
aF-0.004922851609024497
aF0.0032491152057404463
aF-0.0020720795668674585
aF0.0016279163970295012
aF0.007941197433873346
aF0.006462360165657723
aF0.01530036303461227
aF0.0005801955183625512
aF0.0070185300523011645
aF-0.0068629402565507135
aF0.0027155572976925203
aF0.0008221586198802564
aF0.013352708749603292
aF0.014556020059107546
aF-0.0053037976333967975
aF0.07709364884014577
asS'A6_y4.00_y4.50_val_err'
p301
(lp302
F0.011521495333332674
aF0.008221575087516694
aF0.008575462207419391
aF0.009554290899592185
aF0.010537552043722092
aF0.011533911208604858
aF0.012799551244396728
aF0.014027942695273214
aF0.015505820309090783
aF0.017135455518146298
aF0.014058092355108416
aF0.016952822510627626
aF0.02031537031734193
aF0.02407339147187094
aF0.02825759649235828
aF0.020363133832833454
aF0.04575539406679348
aF0.11190231444516356
aF0.22925981851200786
aF5.819311096424173
asS'A2_y2.00_y2.50_val'
p303
(lp304
F-0.00330634452443219
aF0.03053655092042067
aF0.0012949711612892938
aF0.029099398769269057
aF0.03841186365593066
aF0.05098631509595501
aF0.08735478793363133
aF0.10793226666358648
aF0.09976304294065644
aF0.14492132568658378
aF0.17461884731983057
aF0.23855359476249235
aF0.26056416383033604
aF0.35271854354574717
aF0.3455380524977338
aF0.4125859694717683
aF0.5458985829737091
aF0.6661332143676691
aF0.6324984078210805
aF0.7883139530412039
asS'A5_y3.50_y4.00_fit'
p305
(lp306
F0.0
asS'A3_y0.40_y0.60_val'
p307
(lp308
F-0.01471803703420984
aF-0.007213248477995976
aF-0.022379990496499785
aF-0.02783279084925028
aF-0.046957493421793305
aF-0.06192251970048513
aF-0.04619570428806902
aF-0.05463565690062102
aF-0.08478162788873472
aF-0.05968902493268858
aF-0.0835318859841068
aF-0.08797057155250361
aF-0.05892893654625723
aF-0.058379218601537414
aF-0.09850720141773757
aF-0.052669010474063256
aF-0.046697527260342625
aF-0.10869728302030715
aF-0.12072668715724022
aF-0.1745585948149757
asS'A1_y0.60_y0.80_fit'
p309
(lp310
F0.0
aF0.009573177331402977
aF-0.0003074728156728778
aF2.652444754838902e-06
asS'A7_y0.20_y0.40_fit'
p311
(lp312
F0.0
asS'A5_y0.60_y0.80_fit'
p313
(lp314
F0.0
asS'A0_y0.20_y0.40_val'
p315
(lp316
F0.01999652650124379
aF0.01151722715254961
aF-0.0034312574883955268
aF-0.00980428291042486
aF0.03940902463184652
aF0.022336568382503457
aF0.06344783522239723
aF0.034894221609972256
aF0.043012215373428836
aF0.07585376620332086
aF0.13352851181731903
aF0.17397512663239215
aF0.23775502889174305
aF0.27960900844845327
aF0.3450663201881949
aF0.4276680638606877
aF0.600246009772188
aF0.7078392307982478
aF0.8117349099884111
aF1.020811082502538
asS'A0_y3.00_y3.50_val'
p317
(lp318
F-0.012948917129242555
aF0.010956142311037193
aF0.010566556159176657
aF0.022182607119585713
aF0.04817707190462922
aF0.04476677776761994
aF0.053768516543341444
aF0.08667421474916988
aF0.08559189383534284
aF0.12536855482281142
aF0.17708798653258087
aF0.21532104036131636
aF0.2829286062587096
aF0.2997809332886421
aF0.35986256369419267
aF0.45971927780090444
aF0.6156313912696982
aF0.7719789573524505
aF0.7758497021773856
aF0.9496187120330737
asS'A4_y1.00_y1.20_fit'
p319
(lp320
F-0.30401298203751864
aF0.0005982579457315673
asS'A0_y4.50_y5.00_val_err'
p321
(lp322
F0.03048680272601701
aF0.0230222657685268
aF0.024985042786287104
aF0.028800480593952824
aF0.03258982730091045
aF0.03668569971323279
aF0.04118922160847507
aF0.045995484817532344
aF0.0518338256278611
aF0.05899028948559315
aF0.05079636162528203
aF0.06555574599146323
aF0.08261628147418557
aF0.11127256323369593
aF0.1367621630546578
aF0.125939700070392
aF0.5348903925167412
aF1.4249286953597207
aF0.0
aF0.0
asS'A1_y3.50_y4.00_fit'
p323
(lp324
F0.0
aF0.017281980596871388
aF1.0024178643121967e-05
aF-1.670742153117913e-05
aF2.3397380209385236e-07
asS'A6_y1.60_y1.80_val'
p325
(lp326
F0.007437040461345238
aF-0.0012961355343691621
aF0.014268565814146237
aF0.015317174817915225
aF0.00499351772731541
aF0.007665151190388718
aF0.0067122986110681486
aF-0.013548036375261027
aF-0.0033056599082494195
aF0.002256271415551225
aF-0.0067482033228863075
aF-0.011692161696716295
aF0.00225504525345578
aF0.00883174481768683
aF-0.003233971912068218
aF0.016392746306039367
aF0.02302893117395219
aF0.04355560483584072
aF-0.002873472289659355
aF-0.07298862019224867
asS'A4_y1.60_y1.80_val'
p327
(lp328
F-0.5549392330890879
aF-0.5552071000787071
aF-0.5390020598906767
aF-0.5340637384149891
aF-0.5335405867554672
aF-0.5449418586642595
aF-0.5408582167218926
aF-0.5140272612322363
aF-0.533655496854482
aF-0.5335879112724702
aF-0.543350579421419
aF-0.5167388178289358
aF-0.5058920313279656
aF-0.5135912550764918
aF-0.4981397308940249
aF-0.4675961034645766
aF-0.411227334298599
aF-0.3436868566390787
aF-0.2780150858073272
aF-0.2357364048474528
asS'A3_y1.40_y1.60_val'
p329
(lp330
F-0.011581156230554583
aF-0.04030307238291516
aF-0.06149574779382229
aF-0.06382498983520461
aF-0.08800221811626958
aF-0.0933316598172838
aF-0.10332376694251333
aF-0.13037931759262086
aF-0.14453031319363
aF-0.14655982329975714
aF-0.12424484528734066
aF-0.1465316315738054
aF-0.1589256216040148
aF-0.1555483880333073
aF-0.17922810696471583
aF-0.1563055869474182
aF-0.24431075005990396
aF-0.26279369380816836
aF-0.3971351589925156
aF-0.49848122130907263
asS'A2_y1.40_y1.60_val'
p331
(lp332
F-0.002942033645480628
aF0.004631705965364297
aF-0.0005093880691945783
aF0.03152852509142034
aF0.04032760132989664
aF0.036807081488246365
aF0.08159178677963749
aF0.05182639587499993
aF0.09948066212029807
aF0.09551416875030086
aF0.18497191134515156
aF0.18007806525391123
aF0.28228978336289995
aF0.3758004178089709
aF0.3497394106927106
aF0.4128574061022688
aF0.5147894484462577
aF0.6771814779184714
aF0.6783633181148834
aF0.7394490614368218
asS'A1_y3.50_y4.00_val_err'
p333
(lp334
F0.008766550329818705
aF0.0061238629552758375
aF0.006267448998281082
aF0.006861571182039563
aF0.0074942553838100966
aF0.008135684873952383
aF0.008873784543821333
aF0.00967061479752991
aF0.010586628134981334
aF0.011596153200743349
aF0.009367898301353383
aF0.010974665442820494
aF0.012767924577358116
aF0.014781126335803748
aF0.016964407652279544
aF0.0109804523392869
aF0.020629288838487712
aF0.03710274643663158
aF0.05404036239413826
aF0.2209050159775171
asS'A4_y1.40_y1.60_fit'
p335
(lp336
F-0.4650967323066056
aF0.0012816383701942536
asS'A0_y4.50_y5.00_fit'
p337
(lp338
F0.0
aF-0.02289646856998126
aF0.001988053928170575
aF-2.466057103800285e-05
asS'A4_y1.60_y1.80_fit'
p339
(lp340
F-0.5543644883401893
aF0.0015257900339639315
asS'A6_y4.00_y4.50_fit'
p341
(lp342
F0.0
asS'A3_y0.60_y0.80_val'
p343
(lp344
F-0.018330522924675657
aF-0.016028185818086398
aF-0.029312786204291594
aF-0.0383737574954626
aF-0.05433052819833513
aF-0.05471735711741946
aF-0.04986351509421827
aF-0.043727774599082114
aF-0.06855058688909924
aF-0.06673015599547405
aF-0.08028059755338467
aF-0.09038111863715372
aF-0.11667016309960578
aF-0.08112340045750438
aF-0.06390338836844914
aF-0.047429981005401814
aF-0.11144192246522402
aF-0.06278519160370859
aF-0.15982853956268284
aF-0.2244593919571109
asS'A6_y0.40_y0.60_val'
p345
(lp346
F0.004425425846361137
aF-0.007286691541009487
aF0.002786375952253553
aF-0.012861311047927364
aF0.010906606611594647
aF0.024078735825730578
aF-0.006668852136519126
aF-0.012479096345292122
aF-0.017163719686950338
aF0.010671092113258555
aF0.003054829703359229
aF0.017395696286642514
aF0.0008031425610094826
aF0.032454461908490065
aF-0.017751928980489193
aF-0.003899905203277393
aF-0.007293060177411146
aF-0.027551665892504462
aF-0.009015870701307447
aF0.005326428574651673
asS'A7_y0.80_y1.00_val_err'
p347
(lp348
F0.011148233823808239
aF0.007614544173225282
aF0.007497228119700001
aF0.007974825948608684
aF0.008536082961829833
aF0.009154745702074316
aF0.009811827836495746
aF0.01056893592782742
aF0.01134448856288808
aF0.012255136377915378
aF0.009634139325337606
aF0.0110541812792672
aF0.012440810419968631
aF0.014126522208526511
aF0.01572911572044544
aF0.009473876983887897
aF0.015145366911911247
aF0.022040206180050637
aF0.023773429738890975
aF0.04745511522157868
asS'A3_y1.60_y1.80_val'
p349
(lp350
F-0.023696042854666498
aF-0.03498396940179129
aF-0.0507817788922575
aF-0.0665785863664102
aF-0.08759023122664773
aF-0.1047979341099119
aF-0.12806361056520574
aF-0.12796836406212994
aF-0.13125307449147178
aF-0.1546652958822521
aF-0.16509846302154493
aF-0.1649670150405846
aF-0.14870620482830518
aF-0.1764385334600208
aF-0.1764068322049654
aF-0.1924733838958214
aF-0.2520312850095728
aF-0.3550145340933614
aF-0.4330904964327175
aF-0.6615442980552232
asS'A7_y1.40_y1.60_val_err'
p351
(lp352
F0.011136341290885
aF0.007595661716823846
aF0.007486619342275316
aF0.007976049698444775
aF0.008549586543407263
aF0.009193798711892066
aF0.009851388042567013
aF0.010598688959807505
aF0.011436714098989583
aF0.012339406853332716
aF0.009779070140498869
aF0.011155498035487653
aF0.012615760712738172
aF0.014086100364647117
aF0.015776664861649102
aF0.009467570951343502
aF0.015109311994904272
aF0.02209960711198396
aF0.02399447099721113
aF0.04662496045912451
asS'A7_y3.00_y3.50_val_err'
p353
(lp354
F0.0067056997325521525
aF0.004649948849626551
aF0.004700103514815505
aF0.005064744633684511
aF0.0054939278388485835
aF0.005925129170586234
aF0.006396917786969292
aF0.006917266345518944
aF0.007468381964418901
aF0.008106449745890493
aF0.006503442768055663
aF0.007506333326443802
aF0.008579629848184184
aF0.00971418810700713
aF0.011019515507194684
aF0.006811627076085113
aF0.011705060596796716
aF0.01888377149283804
aF0.023304694676566404
aF0.06346839068949743
asS'A0_y1.80_y2.00_fit'
p355
(lp356
F0.0
aF-0.0012807476276072705
aF0.0005029521946426137
aF-5.85921880207467e-06
asS'A7_y1.40_y1.60_fit'
p357
(lp358
F0.0
asS'A5_y0.20_y0.40_fit'
p359
(lp360
F0.0
asS'A7_y1.20_y1.40_val_err'
p361
(lp362
F0.011167300899023782
aF0.007592604210069913
aF0.007506208286573917
aF0.007967279783337885
aF0.008551843476065728
aF0.009141556542841383
aF0.009826683760406275
aF0.010591946246505812
aF0.011311402401296178
aF0.012365522361551085
aF0.009624053297836931
aF0.011149337783610625
aF0.012472895150261886
aF0.014142913864897353
aF0.015808120811826507
aF0.009537184804940209
aF0.015127878380897896
aF0.022119184418823296
aF0.023769921161894997
aF0.04645056610535726
asS'A3_y4.00_y4.50_val_err'
p363
(lp364
F0.009475349050493784
aF0.006771236078968113
aF0.0071007085015982645
aF0.007902376029933376
aF0.008777216977409723
aF0.009712738087346877
aF0.010820542959986067
aF0.011894925790091902
aF0.013442274701162747
aF0.015036246376551212
aF0.012793475886831837
aF0.015765202439678307
aF0.01935555945701786
aF0.023454469027251356
aF0.028480932529568397
aF0.020528038970465793
aF0.04973064913471314
aF0.11581104061461246
aF0.261337001699981
aF1.6718996380147524
asS'A2_y0.80_y1.00_val_err'
p365
(lp366
F0.024347495260714724
aF0.016708614088486017
aF0.016380490522908065
aF0.017470564767083474
aF0.01878526922176933
aF0.020076916316434008
aF0.02151756352086422
aF0.023385026767559342
aF0.02513501132377494
aF0.027225906816196722
aF0.021512997269421335
aF0.02500668894249638
aF0.028232924422037096
aF0.03234208393454407
aF0.03597213513959862
aF0.021920653492934414
aF0.035278653206894973
aF0.05188620889782654
aF0.05673062545246597
aF0.11448572513175945
asS'A6_y0.60_y0.80_val'
p367
(lp368
F-0.026322941886834046
aF-0.006400892440521007
aF-0.004513841832997874
aF0.0035242650073307683
aF-0.014161021482557299
aF0.013608024375837913
aF-0.01711211589677387
aF0.01697506464047516
aF-0.027202666909691593
aF-0.0013152885771032482
aF-0.013354008900519172
aF0.02374247382925896
aF0.003626481742674677
aF-0.02849578212834558
aF0.019230681432850342
aF-0.013685377042861399
aF0.00943134404983661
aF0.04132404102839974
aF0.0009993662523567494
aF-0.16151157789952955
asS'A4_y0.80_y1.00_fit'
p369
(lp370
F-0.22899350539310737
asS'A3_y0.20_y0.40_fit'
p371
(lp372
F0.0
aF-0.0047801134605534035
aF7.823797368262161e-05
asS'A3_y0.40_y0.60_val_err'
p373
(lp374
F0.011258449288781114
aF0.007635664752087337
aF0.007505667572469472
aF0.008007077930141918
aF0.008602944869233116
aF0.00916636279466017
aF0.009912046310928513
aF0.010605950509339379
aF0.011451356034824374
aF0.012451371749865254
aF0.009900784834738998
aF0.011367556143353646
aF0.012953547585899042
aF0.01488222599912817
aF0.016659889689254973
aF0.010071043018090108
aF0.016324940603042928
aF0.024256224910004315
aF0.026138121345152667
aF0.05245943848080586
asS'A6_y1.20_y1.40_val'
p375
(lp376
F0.015965279452600463
aF-0.0009883199581804747
aF-0.006538388676453871
aF0.002933382650941989
aF-0.0019914175032976814
aF-0.027116009432638016
aF-0.0003777541772654516
aF-0.0007695698375002313
aF0.0059292085000839535
aF0.005833753019972795
aF0.0072062634867376876
aF0.0049125751937897436
aF-0.008165758062224394
aF-0.002977013869900615
aF0.018672437982000318
aF-0.016735862990390586
aF-0.008991016458199691
aF0.017808168295020306
aF-0.014286258578841662
aF-0.029297789322406967
asS'A0_y3.00_y3.50_fit'
p377
(lp378
F0.0
aF7.166471862687929e-05
aF0.0004591435225475317
aF-5.535911284868536e-06
asS'A5_y1.00_y1.20_val'
p379
(lp380
F0.025163399523362044
aF0.007062312784810068
aF0.00035636517135668777
aF-0.003251895950625915
aF-0.002365945276627376
aF0.0007893020483884769
aF-0.0005337553912252462
aF-0.0024018749439560488
aF0.013526281503621266
aF-0.014028109101119733
aF0.0010735221588502662
aF-0.0016537842260963746
aF0.0035458416789052303
aF0.014627696249032629
aF-0.016911621841317604
aF-0.008396708446291033
aF-0.029457508646459813
aF-0.046308040161804655
aF-0.025469010579899615
aF0.06137368623639543
asS'A7_y1.00_y1.20_val_err'
p381
(lp382
F0.011274429206958028
aF0.00761857693122475
aF0.007509786722045415
aF0.008002319523620183
aF0.008514441292778192
aF0.009053303984365865
aF0.009836122834744884
aF0.010573890926615563
aF0.011321109046276598
aF0.012272030999187312
aF0.00967408756389037
aF0.011001059170051425
aF0.01260833558177984
aF0.01414376144030461
aF0.015767657618934783
aF0.009477244150287521
aF0.015147825300955075
aF0.02212630414058703
aF0.023575344667787428
aF0.04530285198483614
asS'A2_y0.40_y0.60_fit'
p383
(lp384
F0.0
aF-0.001127656285462797
aF0.0004912924463373498
aF-6.254259722301715e-06
asS'A1_y1.40_y1.60_val_err'
p385
(lp386
F0.013614544414026633
aF0.009264911650575006
aF0.009142051773536521
aF0.009720533480491636
aF0.010464723992386061
aF0.011229195751980113
aF0.012106387671171453
aF0.012950270545910117
aF0.014011176655117015
aF0.015001918289946133
aF0.012024643490484313
aF0.013638967129224033
aF0.01544705659997601
aF0.0171240076831261
aF0.019261424688080984
aF0.011439960668237143
aF0.01820791777908145
aF0.0267171853675692
aF0.028813805232119374
aF0.054668026188585836
asS'A3_y0.60_y0.80_val_err'
p387
(lp388
F0.011248650669171828
aF0.007641195620667975
aF0.0075223529698422355
aF0.007999834608176257
aF0.008587407672241294
aF0.009179740747911131
aF0.009959720834888842
aF0.010679777408781808
aF0.011525531276881768
aF0.012465682464864588
aF0.009937338549610918
aF0.011517097311657962
aF0.013102238298871315
aF0.014773110686822804
aF0.016589653972260466
aF0.010064593982124316
aF0.016428133930727704
aF0.02459992161204572
aF0.02640805234255235
aF0.05325563571416134
asS'A2_y1.60_y1.80_val_err'
p389
(lp390
F0.024201716925776152
aF0.016493101969154163
aF0.016353894109830795
aF0.01739653163405732
aF0.01871959870826564
aF0.020133871340865542
aF0.02166906690533172
aF0.023124005291315305
aF0.025400866193199655
aF0.027382063088275732
aF0.02169330840654396
aF0.024996030660765754
aF0.02855104954118331
aF0.032490494947819706
aF0.036260820221323126
aF0.021852367150475442
aF0.034995832772779116
aF0.052403418966488015
aF0.0557709314588982
aF0.11242642201037627
asS'A1_y0.60_y0.80_val_err'
p391
(lp392
F0.013657388917766538
aF0.009324879928350568
aF0.00916617638611214
aF0.009723177678384641
aF0.010431159793424936
aF0.011182140667873009
aF0.012080693205685401
aF0.012945151024042699
aF0.013904309809349173
aF0.014942483017277734
aF0.011930449690163695
aF0.013560554699061382
aF0.015341689044337931
aF0.017153796296251564
aF0.01910287847301743
aF0.01143371850766121
aF0.018170925415373657
aF0.026903516960472627
aF0.028670292235152453
aF0.05596832678365922
asS'A6_y1.60_y1.80_fit'
p393
(lp394
F0.0
asS'A1_y4.00_y4.50_val'
p395
(lp396
F0.028708355960075115
aF0.059968977016225736
aF0.10772846374866826
aF0.14950860260382529
aF0.15415170162688527
aF0.2032453287184806
aF0.22622432582039353
aF0.22752157922725916
aF0.2654660705337794
aF0.3282419885778471
aF0.3451941472485103
aF0.352159109733184
aF0.3527063819014983
aF0.3500285056507691
aF0.34132586343407567
aF0.4037277266397858
aF0.2981459508555842
aF0.3642921344851523
aF0.8754915126369696
aF1.5043273534353374
asS'A6_y3.50_y4.00_val_err'
p397
(lp398
F0.008750219149831042
aF0.00611808666041926
aF0.006250724556674048
aF0.0068095331490207675
aF0.007411535541680376
aF0.00804102411129151
aF0.00872374648873017
aF0.009505098409666828
aF0.010309330657646866
aF0.011271132116631147
aF0.009064922536318243
aF0.010597550555848453
aF0.012301321588634137
aF0.014127775530398663
aF0.016201262176083357
aF0.010473817441475337
aF0.019418024988421448
aF0.034547297181105156
aF0.0512041272981361
aF0.19743523982420907
asS'A0_y1.00_y1.20_val'
p399
(lp400
F0.04567077216155988
aF0.007501010026388567
aF-0.005050888897108543
aF0.020973722951139667
aF0.029176751463533355
aF0.008497912591761464
aF0.05761568358085589
aF0.05937751636941034
aF0.06808855039956886
aF0.10239207819717815
aF0.1442057382048801
aF0.1751507335769248
aF0.2701021141653529
aF0.3246483084809776
aF0.40112958187078407
aF0.3978637312859775
aF0.6091487012503677
aF0.7326787737624585
aF0.8226401012836687
aF0.8913092887974646
asS'A6_y1.80_y2.00_val_err'
p401
(lp402
F0.013395103736992911
aF0.009165838718710208
aF0.009073534145250126
aF0.0096820174984137
aF0.010389554454449869
aF0.01112912890703651
aF0.011929147556697625
aF0.012757241304606023
aF0.013780483417474001
aF0.014855712786977084
aF0.011710300105529309
aF0.013338174500119438
aF0.01499458843138383
aF0.01666858889968029
aF0.018659097127153447
aF0.011061763263657542
aF0.01723803283435082
aF0.02532763777445145
aF0.026694874692386267
aF0.05227796189189898
asS'A7_y1.80_y2.00_fit'
p403
(lp404
F0.0
asS'A4_y2.00_y2.50_fit'
p405
(lp406
F-0.8560037899397607
aF0.0003114391548000861
aF5.969522007069064e-05
asS'A2_y3.50_y4.00_fit'
p407
(lp408
F0.0
aF-9.425857906292245e-05
aF0.0007234537467061784
aF-1.0894903912901703e-05
asS'A1_y1.00_y1.20_fit'
p409
(lp410
F0.0
aF0.002281101539302827
aF0.0014745881461174005
aF-0.00010206723251024223
aF2.336513091753546e-06
aF-1.7810040712796696e-08
asS'A3_y3.50_y4.00_val_err'
p411
(lp412
F0.007176313713713514
aF0.00503441023530511
aF0.00514448977668615
aF0.005655174514965618
aF0.006208218360438116
aF0.00674166824558613
aF0.007387187759545232
aF0.00807270710287633
aF0.008917825966960394
aF0.009794703333954343
aF0.007986983652457601
aF0.009507111398732365
aF0.011279392506727123
aF0.013208758481129599
aF0.015454505182831488
aF0.010194624119747324
aF0.020318273907385134
aF0.03826890091177695
aF0.05827693683557155
aF0.23925117032419124
asS'A5_y2.00_y2.50_val_err'
p413
(lp414
F0.0075189823175425595
aF0.005172474344212309
aF0.0051366189344220934
aF0.00550541884396796
aF0.005907834245923034
aF0.006375257584324414
aF0.00686679144167504
aF0.007407201150207991
aF0.007981917955615894
aF0.008582728752383546
aF0.006841485433947965
aF0.007905697853512273
aF0.008980652636618095
aF0.010154343621390874
aF0.011399525374926216
aF0.0068853857232070185
aF0.0111947308905633
aF0.01665210199550624
aF0.018352595734379865
aF0.03787141668676671
asS'A5_y0.00_y0.20_fit'
p415
(lp416
F0.0
asS'A4_y2.50_y3.00_fit'
p417
(lp418
F-1.1488257265266149
aF-0.00014078183906872897
aF9.99026322083231e-05
asS'A1_y1.20_y1.40_fit'
p419
(lp420
F0.0
aF0.015548957790481044
aF-0.0005659528966595138
aF5.780925947274898e-06
asS'A7_y4.00_y4.50_val_err'
p421
(lp422
F0.009504938996278326
aF0.00674985849835664
aF0.007039721558670696
aF0.007838430373904956
aF0.008623869872780451
aF0.009445907859484801
aF0.010456474218194596
aF0.01147021451428589
aF0.01279463608268282
aF0.014210587974740629
aF0.011680807700608597
aF0.014207179986629584
aF0.017062152319065497
aF0.020332433853728106
aF0.023860522106182815
aF0.01738478113815372
aF0.04093246442899433
aF0.09791724351691537
aF0.20564996913613995
aF4.573244580483843
asS'A0_y1.00_y1.20_val_err'
p423
(lp424
F0.015958684781069103
aF0.010863735196531294
aF0.010726277445956263
aF0.011360928976292674
aF0.012136823275797582
aF0.012887848571659765
aF0.0139490516965492
aF0.015012074175121256
aF0.016053428750287053
aF0.017361218051027402
aF0.013715422216274477
aF0.01567998554881349
aF0.017810058947124962
aF0.01997488410000828
aF0.022282361177774143
aF0.013431594883769497
aF0.021456902183060244
aF0.03155235134905421
aF0.03389247487989844
aF0.06520963201761941
asS'A4_y2.50_y3.00_val'
p425
(lp426
F-1.1560601539352644
aF-1.1466126859075627
aF-1.1506836158063778
aF-1.134583338790223
aF-1.1351891133252847
aF-1.136897873139711
aF-1.1354287313609206
aF-1.1407851982747816
aF-1.1169627473472623
aF-1.1323242716124495
aF-1.1159174637657032
aF-1.0835911557534001
aF-1.0655133311499625
aF-1.0093254162035339
aF-0.9942270454811821
aF-0.9114506177692815
aF-0.7731991141773484
aF-0.6545847460622299
aF-0.5434346307243888
aF-0.482289842434174
asS'A1_y1.40_y1.60_val'
p427
(lp428
F0.015674821920546683
aF0.029588918738874016
aF0.06423228841644446
aF0.09974409384716186
aF0.11727002899099523
aF0.1307471793098866
aF0.14450556311402324
aF0.15697783291394604
aF0.17880824550957208
aF0.18285942920264217
aF0.15338134685698632
aF0.12319765214239138
aF0.14021968051804468
aF0.12333931547599199
aF0.10457110854637992
aF0.07903746390753079
aF0.07615489501361254
aF0.024823154188042193
aF0.03558004360030948
aF0.027684287724852406
asS'A1_y3.00_y3.50_fit'
p429
(lp430
F0.0
aF0.016948191436794158
aF-1.795700085418725e-05
aF-1.8252771844006854e-05
aF2.688608764913901e-07
asS'A3_y3.00_y3.50_fit'
p431
(lp432
F0.0
aF-0.026095255135220263
aF0.0005028237288144718
aF-4.564881494532836e-06
asS'A7_y1.40_y1.60_val'
p433
(lp434
F0.004828940018534528
aF-0.0019492542879590469
aF0.011443250638408998
aF-0.0021216028922210043
aF0.00363424667393637
aF-0.0024888947653368145
aF-0.014980713104583342
aF-0.02034753797269714
aF-0.004373698222212926
aF-0.0041923389876436165
aF-0.008898344287040614
aF0.0009809885207539997
aF0.00182900592471778
aF-0.0040794955920786975
aF0.007289182889201293
aF-0.013007966909939108
aF-0.006708156003971799
aF-0.002128734436131251
aF0.03465678021345325
aF-0.02442647981713823
asS'A6_y0.20_y0.40_fit'
p435
(lp436
F0.0
asS'A4_y0.00_y0.20_fit'
p437
(lp438
F-0.021604179215075403
asS'A5_y0.60_y0.80_val_err'
p439
(lp440
F0.012288293061947838
aF0.00835871883177971
aF0.00822187348791152
aF0.008710789798839704
aF0.009362549252074368
aF0.009937026739236543
aF0.010802314666752754
aF0.011565635623514108
aF0.012503284236996464
aF0.013575317911564798
aF0.010665368109104094
aF0.012347820940970654
aF0.014018335259128753
aF0.015875437469593124
aF0.017726762194180873
aF0.010859991367995656
aF0.017606543560247934
aF0.02638056495058538
aF0.02788104947709798
aF0.055643482888338106
asS'A7_y0.20_y0.40_val_err'
p441
(lp442
F0.011242871033240542
aF0.007668091626111338
aF0.007514531128471673
aF0.007950628553944366
aF0.00852834854062174
aF0.009092264696251346
aF0.009863201739332274
aF0.010546433826418561
aF0.011341895295201902
aF0.012218150489534509
aF0.009639902941743462
aF0.011029410856856034
aF0.012564398835181479
aF0.013990009551316313
aF0.015830586783259222
aF0.00940560209330199
aF0.0150962533291496
aF0.022164935935769563
aF0.023841385747759517
aF0.048060748992964364
asS'A3_y3.00_y3.50_val_err'
p443
(lp444
F0.006698774669599771
aF0.00468420497813001
aF0.0047358276373034355
aF0.005108760062609232
aF0.0055532459234666496
aF0.006001576862813912
aF0.006520536873166401
aF0.00709947875027118
aF0.007712094803618625
aF0.008460470099808527
aF0.006789798308752771
aF0.007904222968226243
aF0.009195440598186198
aF0.010473433668921527
aF0.011956681850974935
aF0.007549264617761803
aF0.013510611119715063
aF0.022565432469523045
aF0.0293548879021484
aF0.0826204566421721
asS'A5_y1.80_y2.00_fit'
p445
(lp446
F0.0
asS'A5_y2.00_y2.50_val'
p447
(lp448
F0.013715288597123518
aF-0.005888286885719834
aF0.003848053210138781
aF-0.011827423000494204
aF-0.011428586022594637
aF-0.00022471870238020906
aF-0.0040573245745616215
aF-0.00012954261850820842
aF-0.007901288348662156
aF-0.0011659977728254462
aF-0.004454069793271975
aF0.006835132316428948
aF0.008183481263204635
aF-0.002864200376403825
aF-0.006536358227193401
aF-0.005400808996887901
aF-0.007044135342060681
aF0.012177481100250968
aF-0.03776432432504081
aF-0.005100904433673432
asS'A2_y3.00_y3.50_fit'
p449
(lp450
F0.0
aF0.0023716789730795773
aF0.0004002259227988518
aF-5.369580530964523e-06
asS'A1_y1.80_y2.00_val_err'
p451
(lp452
F0.013391172066730754
aF0.009168854858452298
aF0.009139339908637694
aF0.009702612329110662
aF0.010540640202271526
aF0.01125714656291527
aF0.012041235922557009
aF0.013016031630053788
aF0.013975625170523562
aF0.015178051513722162
aF0.011968325070675384
aF0.013660778697874059
aF0.015420397635827945
aF0.017346124511421035
aF0.01938983157330265
aF0.011469969721823963
aF0.01808958781111904
aF0.026615296588901265
aF0.02878562189084524
aF0.05654103356293726
asS'A6_y1.40_y1.60_val_err'
p453
(lp454
F0.013585814598227414
aF0.009249388106916815
aF0.009109540975779103
aF0.009677280450487599
aF0.010380398988864208
aF0.011156052874827942
aF0.011912012395608844
aF0.012837963930042568
aF0.013804163414023973
aF0.014818171368371744
aF0.011755063866792958
aF0.01329710509198087
aF0.015054172522527411
aF0.01656703579627475
aF0.018590978360215622
aF0.010997887215994819
aF0.01729893200680107
aF0.024981661273026198
aF0.026413035141066167
aF0.050770649866678945
asS'A5_y4.50_y5.00_fit'
p455
(lp456
F0.0
asS'A6_y1.00_y1.20_val_err'
p457
(lp458
F0.013696231134955198
aF0.009240268809024002
aF0.009165385188082121
aF0.009736088931210956
aF0.010322230114736763
aF0.01103174171546885
aF0.011953110339739528
aF0.01284024594686589
aF0.013713048638763593
aF0.014810068098348984
aF0.011671027518398621
aF0.013179690902099092
aF0.014975516530152258
aF0.016724689247764903
aF0.01842063503818188
aF0.011091308147632517
aF0.017335645235759357
aF0.024831206942060147
aF0.026072519804131056
aF0.05090557299721574
asS'A5_y0.40_y0.60_fit'
p459
(lp460
F0.0
asS'A7_y0.60_y0.80_val_err'
p461
(lp462
F0.011233806523841209
aF0.007644364438264466
aF0.007519824612015866
aF0.007952344143400738
aF0.008579458336590594
aF0.009093582342582548
aF0.00982006063143345
aF0.01050846783399124
aF0.011365028000208095
aF0.012285669988900823
aF0.009638654749044863
aF0.011096983604765433
aF0.012515167289742064
aF0.014034280687296178
aF0.015744702497551406
aF0.00952071842767307
aF0.015035011345161537
aF0.02255817887942127
aF0.02358065841526338
aF0.04692667563044275
asS'A2_y0.40_y0.60_val'
p463
(lp464
F0.018226836401120185
aF-0.020890601409580083
aF-0.00014472412344742746
aF0.04345641489116321
aF0.058800238050612755
aF0.014538124528342961
aF0.08138695959474428
aF0.06451602456420993
aF0.05508262077625236
aF0.0906150273255782
aF0.1396881467579921
aF0.18725034279867503
aF0.21383464604913388
aF0.35815618191159954
aF0.33003020896929247
aF0.3843988415400154
aF0.529379376453271
aF0.590001865471213
aF0.6891267361115195
aF0.873448979564576
asS'A0_y1.20_y1.40_fit'
p465
(lp466
F0.0
aF-0.0033129974948576946
aF0.0006737967056592489
aF-8.559992898738485e-06
asS'A5_y1.60_y1.80_val'
p467
(lp468
F0.0030165793682740754
aF-0.0032747394874689277
aF0.01455899793529954
aF-0.002488958479812219
aF0.008125676397697542
aF-0.0006198063516206014
aF0.007653608568202661
aF-0.004235880492651632
aF-0.007908810231174731
aF-0.0053628320194300215
aF-0.0011687519527021173
aF-0.009274567497726023
aF0.009744406484766644
aF-0.0104316941843006
aF-0.0014844514916955989
aF-0.002958563546686544
aF0.0010294164142374707
aF-0.04633904606659502
aF0.005116713762621591
aF0.012413062543742243
asS'A0_y0.00_y0.20_fit'
p469
(lp470
F0.0
aF-0.004058496503653614
aF0.0005875506710162261
aF-6.512593211307788e-06
asS'A1_y2.50_y3.00_fit'
p471
(lp472
F0.0
aF0.020242446729585806
aF-0.000639213859112777
aF5.816026296174453e-06
asS'A6_y0.00_y0.20_fit'
p473
(lp474
F0.0
asS'A1_y1.60_y1.80_fit'
p475
(lp476
F0.0
aF0.018565411865970466
aF-0.0006825708977604601
aF7.036899852432861e-06
asS'A7_y3.50_y4.00_val'
p477
(lp478
F-0.00174139360447253
aF-0.0051058268548888975
aF0.009971523905669502
aF-0.0017605154324256019
aF0.002913302855962946
aF0.006573153851903616
aF-0.004139610678469695
aF-0.0001607203748411918
aF-0.0001038589996605773
aF-0.0007523950923134243
aF-0.005770266653301352
aF0.011941222528182797
aF0.008221999253454333
aF-0.0043200858528707475
aF0.0035346247208826644
aF0.0029686329953769134
aF-0.014122433093596901
aF0.03886689515870619
aF-0.040958801126557524
aF-0.25804210341173356
asS'A2_y4.00_y4.50_val_err'
p479
(lp480
F0.020702907087481834
aF0.014737221587342293
aF0.015428043712850099
aF0.01709395723033123
aF0.01893089531300439
aF0.020884833075089215
aF0.02310568506188076
aF0.025302794089880946
aF0.02856605487698243
aF0.03161596705804972
aF0.026765473812974068
aF0.032918996832351874
aF0.04021019483240931
aF0.04853489565744201
aF0.05837163489077412
aF0.04107348157781518
aF0.0981494125510941
aF0.2251467070173035
aF0.47046528809197774
aF8.007682712948155
asS'A1_y0.20_y0.40_fit'
p481
(lp482
F0.0
aF0.0036590313354596393
aF-6.557295228079834e-05
asS'A6_y1.40_y1.60_fit'
p483
(lp484
F0.0
asS'A0_y3.50_y4.00_fit'
p485
(lp486
F0.0
aF-0.0028650766243856762
aF0.00062026606031137
aF-7.600293224506032e-06
asS'A2_y0.80_y1.00_val'
p487
(lp488
F0.02104896693423853
aF0.02799576083275565
aF0.024490392914224945
aF0.017956262128999447
aF0.05118693530016562
aF0.05188334785666288
aF0.07555834435711423
aF0.09292350607371902
aF0.11670069367479814
aF0.13675627959237768
aF0.16412392677584434
aF0.2358023972524449
aF0.31266854334800415
aF0.31284971925345145
aF0.34666619988931324
aF0.4107968228886685
aF0.5018961005760023
aF0.5842668172044568
aF0.7194705652527547
aF0.707227480753876
asS'A3_y0.80_y1.00_val'
p489
(lp490
F-0.023090494169199928
aF-0.024951010763018776
aF-0.0363591372075499
aF-0.036743404266027305
aF-0.05484945754087829
aF-0.06670567641733188
aF-0.07488878515777887
aF-0.08605754256034148
aF-0.07452012596529768
aF-0.055190132221920846
aF-0.08511493213758135
aF-0.08246449725576503
aF-0.09923811505521882
aF-0.07771394723059599
aF-0.10170479019559624
aF-0.08436565629519938
aF-0.09265483733234936
aF-0.15925501562158897
aF-0.22153048365391
aF-0.3318042945722009
asS'A2_y4.50_y5.00_val_err'
p491
(lp492
F0.04684279221340841
aF0.035243152870360034
aF0.03785516605539488
aF0.043797506914163814
aF0.04943986029537328
aF0.05651753736753526
aF0.06330636553456906
aF0.07171388423968317
aF0.08277115169035786
aF0.09685439981818018
aF0.08474299990441238
aF0.11274538573445991
aF0.1509486728248651
aF0.20283959323100156
aF0.2484072119933737
aF0.21967548575760243
aF0.8483197499598596
aF2.6073897117765674
aF0.0
aF0.0
asS'A0_y0.60_y0.80_val'
p493
(lp494
F0.015034907495029478
aF0.00866780039562051
aF0.008265871081289474
aF0.0021233685121339638
aF0.009231009031939038
aF0.008352078473681095
aF0.02891655375790235
aF0.06522222898632343
aF0.07418643650667138
aF0.1146370062422394
aF0.0994301936015979
aF0.22014765202354386
aF0.25087822981489755
aF0.3183923087038677
aF0.3269704985677091
aF0.4579715924886659
aF0.631500192625733
aF0.6795992849339763
aF0.7555537520373679
aF0.9212857056998315
asS'A5_y0.80_y1.00_fit'
p495
(lp496
F0.0
asS'A1_y3.50_y4.00_val'
p497
(lp498
F0.026116985628837387
aF0.053216207803822614
aF0.08162195225036366
aF0.12045077076498306
aF0.14271121901538694
aF0.17256314662649608
aF0.1926405073715837
aF0.20237345389067354
aF0.24690558394035794
aF0.27031124135692297
aF0.26153197754709556
aF0.2504389714212853
aF0.28015512233678314
aF0.2482702093286256
aF0.24637776402794187
aF0.2629314885833968
aF0.2825610924845991
aF0.32207444543304364
aF0.35453949171297955
aF0.31078303311339067
asS'A3_y2.50_y3.00_val'
p499
(lp500
F-0.03337840915543673
aF-0.05635093437370543
aF-0.09079775389812234
aF-0.1346473058261399
aF-0.1555083450446283
aF-0.1921111003987059
aF-0.22667364747168856
aF-0.24472904095244727
aF-0.25871433512251235
aF-0.27381931686144256
aF-0.2944928709695559
aF-0.3017104441735059
aF-0.3249268301255259
aF-0.3485106800589645
aF-0.3760462376435633
aF-0.43592675662424035
aF-0.6488613056457067
aF-0.7980862861122137
aF-0.99106942223473
aF-1.2575615274930398
asS'A4_y4.50_y5.00_val_err'
p501
(lp502
F0.030482197692987184
aF0.023013194562813692
aF0.024812705653395332
aF0.02848164668499896
aF0.032469752793269004
aF0.03638076279728548
aF0.040798108664425535
aF0.04564740750361357
aF0.052033570803371745
aF0.05791947852511279
aF0.04942531845023855
aF0.06180908334768959
aF0.07501458310932232
aF0.09176914121832765
aF0.11382664128711885
aF0.10534495666426788
aF0.40163947189785437
aF2.129859794478945
aF0.0
aF0.0
asS'A2_y0.20_y0.40_val_err'
p503
(lp504
F0.024553720308390342
aF0.016744828905302173
aF0.01642714228514015
aF0.017398028832278478
aF0.018653974684395003
aF0.020045154441686853
aF0.02163923446669737
aF0.023240385634082632
aF0.024940278924683253
aF0.02700203744116811
aF0.021545601166789666
aF0.024633190156890868
aF0.028356046660428447
aF0.03213292153987075
aF0.036230485900280544
aF0.021727645369930767
aF0.03541781082623048
aF0.0526531956018983
aF0.05821478559727413
aF0.11415270994784571
asS'A5_y0.00_y0.20_val_err'
p505
(lp506
F0.012322746137974664
aF0.008361849094643612
aF0.008200739215820903
aF0.008734038977801395
aF0.009341329446391674
aF0.009956884975055143
aF0.010733811880716052
aF0.011526291533411254
aF0.012362007182955447
aF0.013409767702909702
aF0.010667363498588963
aF0.012232785857544013
aF0.013792924769579851
aF0.01588979629166752
aF0.01778119234540362
aF0.010809161751091714
aF0.017650229174845374
aF0.02606665654343646
aF0.028318411696654236
aF0.057219970048095016
asS'A4_y0.40_y0.60_val'
p507
(lp508
F-0.13077609309808216
aF-0.12881507249102989
aF-0.10761481347565643
aF-0.09938654225725436
aF-0.10233871569190432
aF-0.11282148140014435
aF-0.11202726728468487
aF-0.11894869368290993
aF-0.11836752351309107
aF-0.09936142717748497
aF-0.12263772543577267
aF-0.114009538805605
aF-0.11315263815344138
aF-0.11006515773162874
aF-0.08781646079460549
aF-0.10445177043980154
aF-0.10723192610582491
aF-0.08355009573633516
aF-0.08929277769885513
aF-0.09880411555659845
asS'A2_y1.00_y1.20_val'
p509
(lp510
F0.005857466776764764
aF-0.007813211871066462
aF0.017377735017509086
aF0.013235833261701278
aF0.049490122579308474
aF0.03908157538971242
aF0.08588555384595799
aF0.08985908183517449
aF0.10728768928117781
aF0.0931553082823819
aF0.184284186345854
aF0.25696011914389366
aF0.24954860698132617
aF0.27765566839544614
aF0.38836737280186057
aF0.3797443284366227
aF0.5509207433411298
aF0.6468476764126899
aF0.7458554385730378
aF0.9986437748421179
asS'A2_y1.20_y1.40_fit'
p511
(lp512
F0.0
aF-0.0006252713568193902
aF0.0005651200159525402
aF-8.079993878943746e-06
asS'A6_y2.50_y3.00_val_err'
p513
(lp514
F0.008260598751240184
aF0.0056853976541368905
aF0.005676103346099184
aF0.00607420712982777
aF0.0065332888733363155
aF0.007012027436939577
aF0.007543133842396958
aF0.008131996033501041
aF0.008767175830487434
aF0.00945586889796683
aF0.007452095951877114
aF0.008508191239009023
aF0.009594726920402526
aF0.010739598068159707
aF0.012055094093806718
aF0.00720630825899253
aF0.011485603100618498
aF0.017222225050186186
aF0.01928655138523925
aF0.042059875093041765
asS'A2_y0.60_y0.80_val'
p515
(lp516
F0.007791325315821111
aF-0.0026286565648674398
aF0.0014860774340473186
aF0.034826251407362306
aF0.00381717185902664
aF0.0550702064977876
aF0.08365927437612329
aF0.09720338776373509
aF0.08228848304154555
aF0.08620285134408509
aF0.18219242037567782
aF0.22623102169123002
aF0.2782616204333021
aF0.3200268531597873
aF0.328167102057124
aF0.35707380728074795
aF0.5791085984314464
aF0.5750775782320576
aF0.749505633318657
aF0.8435459034081825
asS'A6_y1.60_y1.80_val_err'
p517
(lp518
F0.013485417487136274
aF0.009182187319360977
aF0.009137789345127913
aF0.009707504616613587
aF0.010358960663465483
aF0.011094612031562376
aF0.011892093632002715
aF0.012782794022413559
aF0.013754801270040709
aF0.01486314527372816
aF0.011648849967469534
aF0.013300789449309375
aF0.014999771229562218
aF0.016586982425917083
aF0.01867149906942795
aF0.011038117371221163
aF0.01714867444632936
aF0.02517082332150098
aF0.02604182118872857
aF0.05037841923487652
asS'A6_y0.80_y1.00_fit'
p519
(lp520
F0.0
asS'A7_y0.80_y1.00_fit'
p521
(lp522
F0.0
asS'A6_y1.80_y2.00_fit'
p523
(lp524
F0.0
asS'A7_y0.80_y1.00_val'
p525
(lp526
F-0.012422973136347534
aF0.0013499966511759023
aF-0.0016378239518443777
aF0.004943094555517264
aF-0.016163051451570563
aF-0.002357499479826211
aF-0.005903821851944847
aF0.0010927430237550242
aF0.00980811689111842
aF0.01747230062725601
aF-0.0006286791714956117
aF-0.0029121917024682938
aF-0.007875098037151092
aF0.004606339223580137
aF-0.007727211394228146
aF-0.0036925117120175806
aF0.007171221162047056
aF0.005779939004868549
aF-0.0136156558337073
aF-0.07822346811798674
asS'A7_y1.60_y1.80_val_err'
p527
(lp528
F0.0111048247302142
aF0.007543947800571189
aF0.007487203429579067
aF0.00796156896451567
aF0.008513248819472352
aF0.009169094761290327
aF0.009826987623219598
aF0.010491295684378073
aF0.01138288825106147
aF0.012340306869541977
aF0.009712892338839357
aF0.011084577067541084
aF0.012608841357366545
aF0.014121027970194518
aF0.015880440828462607
aF0.009477319335374133
aF0.01504012677695507
aF0.02222778747659448
aF0.02335021970836985
aF0.04666918459942594
asS'A3_y4.00_y4.50_val'
p529
(lp530
F-0.04100220576168515
aF-0.08869242233595397
aF-0.16850511515131616
aF-0.22351317685833585
aF-0.252406986052029
aF-0.3236366501956495
aF-0.3743125751804959
aF-0.3924290823689421
aF-0.4629288065186566
aF-0.5357255614830628
aF-0.606927726996432
aF-0.6590654127934885
aF-0.7258815822131452
aF-0.793529866107361
aF-0.853550063453894
aF-0.9639263889148009
aF-1.124366932051636
aF-1.1052524884698056
aF-1.2049876086943558
aF-1.1822115715035655
asS'A7_y4.00_y4.50_fit'
p531
(lp532
F0.0
asS'A1_y2.00_y2.50_val_err'
p533
(lp534
F0.008405848493411913
aF0.0057665231820587855
aF0.0057419806499834055
aF0.006156141632956722
aF0.006612017554007959
aF0.007121877555210307
aF0.0076886062808166206
aF0.008275764398584148
aF0.008890134364220075
aF0.009592414141703995
aF0.007564969527232759
aF0.008667856377709282
aF0.00974838727948272
aF0.01095575687246896
aF0.012225970544185468
aF0.007278037797613932
aF0.011635373072788798
aF0.017103372430172493
aF0.01851456519751767
aF0.03810361813922164
asS'A5_y2.00_y2.50_fit'
p535
(lp536
F0.0
asS'A1_y3.00_y3.50_val_err'
p537
(lp538
F0.008161672654532576
aF0.0056870101389910445
aF0.0057627972914113205
aF0.006194409104651991
aF0.006703428009558099
aF0.007264865453158267
aF0.007877552401797548
aF0.008476154212219146
aF0.009234071006363751
aF0.010034603965540052
aF0.007992007505392031
aF0.009198833462652567
aF0.010543907285049862
aF0.011915054386189372
aF0.013415661331199345
aF0.008290874306736504
aF0.014168753628248936
aF0.022542034864458813
aF0.02811549731305145
aF0.0762795207820691
asS'A6_y3.50_y4.00_val'
p539
(lp540
F4.772472641635928e-05
aF0.002615546855993467
aF-0.010980840839003782
aF0.0024991513205393084
aF0.00011526618241099144
aF-0.0060645969657453
aF-0.01742635581458018
aF-0.002661221529810899
aF0.004997537246224031
aF-0.002667637569572671
aF0.003967970558973452
aF0.007246804702138627
aF-0.003575250435510041
aF0.001668191177371608
aF0.03339563125757978
aF0.019821093735354883
aF0.04232134130642696
aF-0.03795838949127593
aF0.02156803904925547
aF0.015988906250518027
asS'A4_y3.00_y3.50_val'
p541
(lp542
F-1.4796820407385465
aF-1.4573623876796422
aF-1.4522299411476174
aF-1.4485611619419037
aF-1.4358887146383055
aF-1.4478144195307787
aF-1.4398802777674333
aF-1.4224343460026831
aF-1.4312872626264186
aF-1.4145705555061832
aF-1.4024630972471155
aF-1.3812774019910485
aF-1.3424701936532843
aF-1.2935173588573463
aF-1.260540767680523
aF-1.1462154252035759
aF-0.9622497508098272
aF-0.8651832987072225
aF-0.7086084257334583
aF-0.5857577679661639
asS'A7_y0.00_y0.20_val_err'
p543
(lp544
F0.011312815759850738
aF0.007654314543986933
aF0.00748757132358262
aF0.007950506158655217
aF0.008514406227481649
aF0.00908851910151627
aF0.009782157964818688
aF0.010536640206224884
aF0.011241204981242573
aF0.012235770701464562
aF0.009636856180640778
aF0.011044784321810793
aF0.0124604485810023
aF0.014165071800320233
aF0.01570865867458719
aF0.00946278408726467
aF0.015202199167835039
aF0.022179102191023738
aF0.023985127343782546
aF0.0482335649054289
asS'A2_y1.40_y1.60_val_err'
p545
(lp546
F0.02434038822755794
aF0.016623991869048997
aF0.01640516043879571
aF0.017512201513355398
aF0.018810239213500383
aF0.0201872857513131
aF0.021622950476344202
aF0.02335574284016546
aF0.02540114769904026
aF0.027419575451498986
aF0.021895345179965286
aF0.02503565995648373
aF0.028513002794358474
aF0.03247828438490829
aF0.036087212767669144
aF0.021944053001539753
aF0.035430134259341425
aF0.05259647402944334
aF0.05706871059906399
aF0.11052885599904651
asS'A7_y3.00_y3.50_val'
p547
(lp548
F0.0007480457243472605
aF0.008438064991041421
aF0.003974819482649543
aF-0.0023550872172124057
aF-0.005121295239286026
aF0.007634303139427351
aF-0.010944957810996966
aF0.0022751373207509176
aF-0.007650447897925603
aF0.0004039830380643232
aF0.0016641758261858562
aF-0.0005379954613523628
aF0.0035467966736494046
aF-0.005434298111623908
aF-0.005745880613933418
aF0.003878337091534233
aF-0.023027100493849942
aF0.010241584903777228
aF-0.005295562486132918
aF-0.03866734189550909
asS'A7_y0.00_y0.20_fit'
p549
(lp550
F0.0
asS'A6_y0.60_y0.80_val_err'
p551
(lp552
F0.013671573567802374
aF0.009298592929029154
aF0.009139974714115614
aF0.009701529363301667
aF0.010479371715826878
aF0.011086445058359852
aF0.011942150167502035
aF0.01273020381897473
aF0.013788045611980531
aF0.014793426264108808
aF0.011672576846230348
aF0.013256411342906444
aF0.01493281450397907
aF0.016501571387522184
aF0.018560805767193343
aF0.011017310837803699
aF0.017119800186678157
aF0.025679999198927946
aF0.026421811861860156
aF0.05136115903369965
asS'A0_y0.20_y0.40_val_err'
p553
(lp554
F0.015958066812996965
aF0.01090648927184535
aF0.010719988453497076
aF0.01134761132639135
aF0.012099659038854705
aF0.012994146348811927
aF0.013897593592975268
aF0.015035565745794992
aF0.01616228429891237
aF0.01736071664282961
aF0.013665806059783061
aF0.01564703926987609
aF0.017764750127479297
aF0.019937260807663
aF0.02239103043173188
aF0.013348346383854182
aF0.02139803939213305
aF0.03150475015859298
aF0.034628780198182045
aF0.06778758182308287
asS'A6_y2.50_y3.00_val'
p555
(lp556
F-0.017610783589482204
aF0.012755582638108857
aF-0.00144128067172077
aF-0.0055953703768997845
aF0.008608888303747033
aF-0.005878024484785022
aF0.0038835823368834556
aF0.002159106350521066
aF0.0033734402258511153
aF0.007108631500050789
aF-0.00197648299258907
aF0.012085448258912373
aF-0.004594690907511152
aF0.001704412057809277
aF0.004403137139960331
aF-0.008892499475974798
aF-0.001662242837133949
aF-0.010805966839047436
aF0.014560736670133984
aF-0.08604919478880337
asS'A3_y4.50_y5.00_fit'
p557
(lp558
F0.0
aF-0.02741621670823506
aF-0.00082166892568117
aF1.9669221479220154e-05
asS'A0_y3.50_y4.00_val'
p559
(lp560
F0.008807814419114351
aF0.003807248395561577
aF-0.001573625880180604
aF0.013955512181140847
aF0.03885329020133585
aF0.022048337054481962
aF0.039192213201903844
aF0.06262875427862263
aF0.10904029508178283
aF0.09975910516179341
aF0.14402272493176885
aF0.2128124132178421
aF0.27077694364832045
aF0.32039561285763285
aF0.4099520300525498
aF0.4514032500103313
aF0.6182158572736073
aF0.7428892741036528
aF0.8237898264897338
aF0.8391221767792939
asS'A7_y0.40_y0.60_val_err'
p561
(lp562
F0.011224141195923198
aF0.007662312485541903
aF0.0075056083988488025
aF0.007948822547297668
aF0.008517399695630085
aF0.009140613543737689
aF0.009777132557999403
aF0.010489827032582728
aF0.011339682844894967
aF0.012263604867520473
aF0.009670738170619562
aF0.011020923120758095
aF0.01251402419163349
aF0.014058233091833983
aF0.01580198085128534
aF0.009485440041725458
aF0.015063343663079603
aF0.022187541027394647
aF0.023582683679354375
aF0.046081195755320374
asS'A4_y1.00_y1.20_val_err'
p563
(lp564
F0.013007058542152105
aF0.008844006472061247
aF0.00875511546639386
aF0.009274038086062692
aF0.009874379275082721
aF0.010549797015852298
aF0.011382292183497436
aF0.012219541405450824
aF0.013077154482336253
aF0.01405757201841491
aF0.011084807147530417
aF0.01259035616426588
aF0.014132747551183092
aF0.015708797875273087
aF0.01736530022246634
aF0.01043999326590309
aF0.016117064556938895
aF0.023009087903841697
aF0.024167178660714
aF0.04665748349268853
asS'A6_y0.20_y0.40_val_err'
p565
(lp566
F0.013649983618858138
aF0.00930246729635726
aF0.009163200710110715
aF0.009695514553321346
aF0.010350171077196702
aF0.01108332234961467
aF0.011950253792833545
aF0.012805165293737935
aF0.013730853375943316
aF0.014791021216150542
aF0.011600088629043173
aF0.013223156282509897
aF0.014984407234495074
aF0.016591585249076706
aF0.018619743757844715
aF0.010971493724770255
aF0.017270162081242987
aF0.025038849966034827
aF0.026519983071856
aF0.052931281159967335
asS'A4_y0.00_y0.20_val'
p567
(lp568
F-0.01786735094466822
aF-0.020459853453969657
aF-0.030646638259707128
aF-0.019863754556507417
aF-0.007949390606323577
aF-0.021494548190901307
aF-0.04290661609121492
aF-0.021320254281711658
aF-0.03400581159679132
aF-0.00520734622836142
aF-0.024258952335041713
aF-0.002227824811304725
aF-0.021955157309777516
aF-0.00805636312303841
aF-0.02743408861720291
aF-0.02793907967117276
aF-0.014020345753992932
aF-0.004140243377816495
aF-0.024130104274046653
aF0.06057223641210228
asS'A6_y1.20_y1.40_val_err'
p569
(lp570
F0.013598125809928488
aF0.009247107816219995
aF0.009141204910447284
aF0.009725942823407675
aF0.010392425543453297
aF0.011096131967223912
aF0.011922477031605549
aF0.012837071631728264
aF0.013689438167094324
aF0.014884385521371167
aF0.011564772435618523
aF0.01328510688108566
aF0.014770199123367864
aF0.01679339808244544
aF0.018590741251798295
aF0.011116728337922705
aF0.01723103826212895
aF0.02493935981400549
aF0.02655939539966168
aF0.05100360185885084
asS'A3_y0.20_y0.40_val'
p571
(lp572
F-0.019900431703334356
aF-0.0110259434763183
aF-0.023201712104502756
aF-0.04060598444597765
aF-0.036886342009077464
aF-0.05291038263418557
aF-0.02937107512512018
aF-0.0913074357480052
aF-0.035094920379398965
aF-0.061965448995829016
aF-0.06038594975873496
aF-0.07320866641063116
aF-0.06762288619537307
aF-0.08100387252985523
aF-0.04006013259536656
aF-0.0493315327767468
aF-0.06431406164232321
aF-0.07332605649901065
aF-0.08028160571274835
aF-0.18996914661637865
asS'A7_y2.00_y2.50_fit'
p573
(lp574
F0.0
asS'A6_y0.60_y0.80_fit'
p575
(lp576
F0.0
asS'A1_y1.00_y1.20_val_err'
p577
(lp578
F0.013665049417871585
aF0.009267872693894714
aF0.009171561333358431
aF0.009765897167379854
aF0.01044375384152687
aF0.011140194478725432
aF0.012109782634284205
aF0.013011183038563759
aF0.014007197811063504
aF0.015018633930529443
aF0.011906961142500547
aF0.013641041176079586
aF0.015352085862812411
aF0.0170739103746108
aF0.019273924334244293
aF0.011513146267073894
aF0.018313731117251205
aF0.026611546005805228
aF0.028373785375051336
aF0.056353272195331774
asS'A7_y0.60_y0.80_val'
p579
(lp580
F-0.009642886584619493
aF0.006099769278875104
aF0.0022305560314380417
aF-0.00257105633181138
aF-0.012324519880877873
aF-0.02055278483866035
aF0.00957788807525005
aF-0.022072265862702386
aF-0.0032953320577750506
aF-0.0036918435855131737
aF-0.004811626471210015
aF0.013417027110419777
aF0.006597917210461783
aF-0.008140108778248249
aF0.01473491403909503
aF0.003498146616738599
aF0.010547936739047404
aF0.004663099734732702
aF-0.05241916099593159
aF0.008574045478301238
asS'A4_y0.00_y0.20_val_err'
p581
(lp582
F0.01295507594655807
aF0.008833359795554567
aF0.008691942916053002
aF0.009221803420530379
aF0.009807879543282374
aF0.010549860278517502
aF0.011287455488701643
aF0.012093905239962614
aF0.012933172293887258
aF0.014044794785000318
aF0.010941645355664737
aF0.012479782089268289
aF0.013941607292586615
aF0.015701784096688726
aF0.017312727750572902
aF0.010250126926834817
aF0.01601173376905046
aF0.02309556029506968
aF0.02485675936554022
aF0.04882600496796121
asS'A1_y4.50_y5.00_val_err'
p583
(lp584
F0.026311420755236136
aF0.019881076773958475
aF0.02133483131710247
aF0.02481971686079002
aF0.028380970184605465
aF0.032344532232797735
aF0.03657193519817979
aF0.04199765268846387
aF0.04835330929569542
aF0.05541766694429503
aF0.04931164816751821
aF0.06357310048624276
aF0.07775286552938904
aF0.09889075147022267
aF0.11507347354677157
aF0.11310672735787104
aF0.44408744043233583
aF2.6929863447897593
aF0.0
aF0.0
asS'A5_y1.20_y1.40_val_err'
p585
(lp586
F0.012165281924888418
aF0.00831831644004775
aF0.008214352584978137
aF0.008752016150606334
aF0.009379818871799542
aF0.00998587083901348
aF0.010767465409540202
aF0.011586910442902191
aF0.012460568857231897
aF0.01360573234939814
aF0.01066304867641436
aF0.012409402221048953
aF0.014039663443653243
aF0.015987155335574616
aF0.017861152143086048
aF0.01086279412414433
aF0.017491320947857734
aF0.02580713638950006
aF0.027893951406164297
aF0.05576663438545663
asS'A5_y2.50_y3.00_val'
p587
(lp588
F0.005925976283304855
aF-0.000696745204526782
aF0.003830500630241108
aF-0.005180406837225138
aF0.005221833998176157
aF-0.0008340707537603741
aF0.004487575867264624
aF-0.002983171700154081
aF0.005572026045763168
aF0.0014877439923130906
aF0.0032576928438913387
aF-0.005173086238528264
aF0.0030986753589977117
aF-0.0025032920783651744
aF-0.007202985104984245
aF-0.00819799909480137
aF0.0044727750092058765
aF0.016840965324853917
aF0.006569910743753306
aF0.05820509274913377
asS'A5_y1.00_y1.20_val_err'
p589
(lp590
F0.012313106777885737
aF0.00833397911056332
aF0.008218478183096059
aF0.008748118816630323
aF0.009330991775448204
aF0.00990098079029526
aF0.010799686993439462
aF0.011630732705768287
aF0.01248925503057521
aF0.013477917839926242
aF0.0107165969622327
aF0.012275162308622037
aF0.014100103572291075
aF0.015857660003050215
aF0.01799123832441538
aF0.010794100097012692
aF0.017587994009839826
aF0.026114536369006867
aF0.02808269156161789
aF0.05501261385746798
asS'A2_y0.20_y0.40_fit'
p591
(lp592
F0.0
aF-0.000881936610166778
aF0.00043895425073045384
aF-5.112593789579749e-06
asS'A0_y0.80_y1.00_val'
p593
(lp594
F-0.0074954616330266035
aF0.006008729920590565
aF0.0030966440011790577
aF0.01758784549810288
aF0.050449696538413885
aF0.016170055924052105
aF0.04064609328056293
aF0.07891442233644427
aF0.0826711039620384
aF0.12025471553745345
aF0.1430233513726073
aF0.22609242612277675
aF0.2541623915362334
aF0.34448282029573973
aF0.3576072106601529
aF0.47222727149717453
aF0.570996465378836
aF0.7152583683506079
aF0.7701540488087089
aF0.9544752241657173
asS'A3_y2.50_y3.00_val_err'
p595
(lp596
F0.0067862323681360725
aF0.004672777629733395
aF0.004678257883434999
aF0.005032845985981677
aF0.005437553109957548
aF0.005858475765069279
aF0.00634331749721766
aF0.006855778042920416
aF0.007433965066648325
aF0.008081518741658206
aF0.006460975058364285
aF0.007491970878959705
aF0.008517599791072883
aF0.009690948271291602
aF0.011037381560056453
aF0.006709042510560576
aF0.011391223857253562
aF0.01771223886068147
aF0.02068360114326423
aF0.0476429339743251
asS'A1_y4.50_y5.00_val'
p597
(lp598
F0.018987844628620628
aF0.032991902084207936
aF0.11157920222130563
aF0.1588959027152165
aF0.2799310390118278
aF0.24945669201783696
aF0.344732852058413
aF0.5020965584147328
aF0.48178864832790713
aF0.6250017635543895
aF0.7802776129203026
aF0.7628455627973466
aF0.7809597524289007
aF0.767515467571029
aF0.5482766976117883
aF0.6346891741350537
aF-0.24087918916635004
aF0.8250975899525139
aF0.0
aF0.0
asS'A6_y0.40_y0.60_fit'
p599
(lp600
F0.0
asS'A0_y3.00_y3.50_val_err'
p601
(lp602
F0.009559169299936762
aF0.0066364658085968685
aF0.006711107314100597
aF0.0072195537106871125
aF0.00780786584361581
aF0.008400465255509316
aF0.009081166135754912
aF0.009852531057230053
aF0.010620056784741153
aF0.01153806351556716
aF0.009201819875380289
aF0.010655074804591751
aF0.01219344758361873
aF0.013825533570541108
aF0.015639907334311115
aF0.009680728061882743
aF0.016532452737812012
aF0.026763299957343913
aF0.03324034229433672
aF0.09079878867097306
asS'A5_y0.20_y0.40_val'
p603
(lp604
F-0.004566742585155394
aF-0.004915322713998656
aF-0.009328891837662865
aF-0.011488258192514731
aF0.0062379548517941625
aF0.008792167419304955
aF-0.00494237059853316
aF-0.009906728955901714
aF-0.01023338195654348
aF0.00996971751662721
aF0.015054641436883516
aF-0.000645183615929374
aF0.00017691440728969507
aF0.02131782417174443
aF0.03282516393675888
aF-0.01990790210844854
aF0.0009741996791494741
aF0.010847596040171966
aF0.009186414807244778
aF0.009680630416053243
asS'A7_y1.00_y1.20_val'
p605
(lp606
F0.01461447650643628
aF-0.011320054090884366
aF0.0022265386895282406
aF0.010750308838688034
aF0.005015640248118664
aF0.0010561270787015312
aF0.00044056687389546384
aF0.002210740855134367
aF0.014697224156120932
aF0.0009356669252653448
aF-0.016620106053201373
aF-0.00021709718897445352
aF-0.005835723175169253
aF-0.033440637622484164
aF0.023843219992908102
aF-0.005210509163529439
aF0.000372845667724504
aF0.011912565514714429
aF0.011297537429177495
aF0.010577763643329952
asS'A3_y0.00_y0.20_fit'
p607
(lp608
F0.0
aF-0.0044527073370863035
aF6.735021500858286e-05
asS'A0_y0.40_y0.60_val'
p609
(lp610
F-0.007251759868623828
aF-0.010876529356385
aF-0.0043903191322729775
aF0.01219811137326565
aF0.020547009699705
aF-0.005861785612749726
aF0.03352125645677442
aF-3.94009772806254e-05
aF0.06872094841745689
aF0.07926642669975976
aF0.1239991279850329
aF0.19985514164796178
aF0.25134717925175293
aF0.329344699974226
aF0.35308661305441424
aF0.44912721944575085
aF0.6078616703245249
aF0.7034510533273679
aF0.795913755372001
aF0.9041220097294649
asS'A4_y1.00_y1.20_val'
p611
(lp612
F-0.3231370648059659
aF-0.3114574551119458
aF-0.3024493033024057
aF-0.2981141607761554
aF-0.28396722161967647
aF-0.31366740837268087
aF-0.29926450126558407
aF-0.2697948376974986
aF-0.2682444150356035
aF-0.26815350667135623
aF-0.30163404502767144
aF-0.2856352294737953
aF-0.2893456736760978
aF-0.2970206224432088
aF-0.27725511031556965
aF-0.28099528597628176
aF-0.2475557151484298
aF-0.19325950426917654
aF-0.15789740092090138
aF-0.16273282356674137
asS'A4_y1.80_y2.00_fit'
p613
(lp614
F-0.6437069110596224
aF-0.0007412618969589446
aF5.25495570959586e-05
asS'A1_y0.00_y0.20_val_err'
p615
(lp616
F0.01370785554929813
aF0.009328011550143416
aF0.009205537644720208
aF0.009782534841382012
aF0.010412845988801794
aF0.011224438242425083
aF0.012021466491523542
aF0.012856127756145145
aF0.01383117587569952
aF0.01498901576546862
aF0.011792842304772292
aF0.013476568610570576
aF0.015196972631022808
aF0.017159820162438288
aF0.019097150021175232
aF0.011442715811498872
aF0.018256225257241274
aF0.02662961381874186
aF0.028896221343983244
aF0.057428151102931695
asS'A5_y3.00_y3.50_fit'
p617
(lp618
F0.0
asS'A2_y3.00_y3.50_val_err'
p619
(lp620
F0.014613592732786266
aF0.010206186768637557
aF0.010292607758476034
aF0.011092285709433299
aF0.012056265406804611
aF0.013001322655687939
aF0.014083443411284677
aF0.015339116038718749
aF0.016590675909912676
aF0.018111081243805664
aF0.014574472320884008
aF0.016916387546274125
aF0.01963480946863535
aF0.022272984875931906
aF0.025275884020981902
aF0.015801244334312476
aF0.02747638726336108
aF0.04450682769981103
aF0.055666362514897205
aF0.15443663533520938
asS'A4_y3.50_y4.00_val'
p621
(lp622
F-1.7803210416409803
aF-1.7821840821998212
aF-1.7784725081780746
aF-1.777205082406587
aF-1.7617728722892685
aF-1.7632408551499312
aF-1.7497121600397716
aF-1.738288384497064
aF-1.7150492153557841
aF-1.7284079293175847
aF-1.6927076022182572
aF-1.6334509019501076
aF-1.5881486505248605
aF-1.5301173535190598
aF-1.4630920290169005
aF-1.3469689827440652
aF-1.1079446078949937
aF-1.0004345701312551
aF-0.8914429550845576
aF-0.6994546061449393
asS'A1_y0.20_y0.40_val_err'
p623
(lp624
F0.013663981234717881
aF0.009314054545262122
aF0.009174630313453508
aF0.009736785898677382
aF0.010428830782362614
aF0.011176794261262286
aF0.012048294808760797
aF0.012978762078531679
aF0.01382413715203134
aF0.014878719519302825
aF0.011869761330993942
aF0.013406942780514844
aF0.015337341040716235
aF0.017132372768666804
aF0.019066324282855682
aF0.011418835011900249
aF0.01825654314414539
aF0.026787887093703534
aF0.02866521197939565
aF0.05677791596636969
asS'A5_y0.80_y1.00_val_err'
p625
(lp626
F0.012180037167515638
aF0.008326129681896383
aF0.008209055587781004
aF0.008710127151487074
aF0.00935783987312807
aF0.010032517743778871
aF0.010804466256909784
aF0.011621416832536252
aF0.012507970782058921
aF0.01356090388282052
aF0.01067793961718102
aF0.01232184468658778
aF0.01404414231971994
aF0.01590938481404373
aF0.017857228129752836
aF0.010823315283372185
aF0.01759472984950992
aF0.025933864227260472
aF0.02836518120380298
aF0.05645843596905675
asS'A2_y1.20_y1.40_val'
p627
(lp628
F-0.012311123111797925
aF0.024389664937531936
aF0.015487334647729811
aF0.0610431670773829
aF0.03569391535489415
aF0.04315341113776973
aF0.06913467395804988
aF0.04637968331033971
aF0.11867923666107678
aF0.09828879532621919
aF0.17299468240742893
aF0.1897457334192734
aF0.31410983698547673
aF0.34369209817580004
aF0.37282402138116005
aF0.36393723026655816
aF0.5051317382656932
aF0.6089283480740367
aF0.610177276374548
aF0.9080450346625223
asS'A6_y4.50_y5.00_val'
p629
(lp630
F-0.017314559583561186
aF0.029289408997654774
aF0.020739376675160272
aF-0.027656076061861944
aF0.002407948085283247
aF0.032613500692902364
aF-0.025485876191997384
aF-0.010730000598736937
aF0.01000736297973244
aF0.09119573185350068
aF-0.04334311947205921
aF-0.10023423921411277
aF-0.034345521660227384
aF-0.04035008062594303
aF-0.1061190698186595
aF-0.12139120649600281
aF0.01031968030776466
aF2.260226146502141
aF0.0
aF0.0
asS'A1_y1.00_y1.20_val'
p631
(lp632
F-0.0029306699220825296
aF0.02777767885293085
aF0.031921865284803355
aF0.04053519273422273
aF0.07521376764348149
aF0.1274613398385142
aF0.12744408691438222
aF0.11891365763580859
aF0.13272832726457112
aF0.12745723915313129
aF0.1211714463914518
aF0.11187884969292664
aF0.1138621368738645
aF0.10816362707877265
aF0.04907315842927984
aF0.08027301277261947
aF0.059265412260718
aF0.04447982343956591
aF0.03954922530759624
aF-0.04642427661291624
asS'A5_y1.20_y1.40_fit'
p633
(lp634
F0.0
asS'A7_y0.00_y0.20_val'
p635
(lp636
F-0.012492369909768316
aF-0.005676015722678743
aF-0.00021333365524211302
aF-0.0034507771047404285
aF-0.017526591148670837
aF0.006422177780944774
aF0.005106409888116136
aF0.013124256486629913
aF-0.0012231804958516333
aF0.00023287207342928838
aF0.0016632470633975802
aF-0.0003070256637560975
aF0.017361938924797055
aF-0.0032804784470033574
aF-0.014478971430349017
aF0.0033743454152940573
aF0.02938017501679063
aF0.015138328471807643
aF0.0033360872380634515
aF-0.036127051810243754
asS'A6_y1.00_y1.20_val'
p637
(lp638
F0.0071409634012067754
aF0.007682433177632567
aF-0.009940996332429983
aF-0.006206926484535312
aF-0.006244918902644699
aF-0.00497947803087033
aF0.00549239056052545
aF0.009355051733163222
aF0.006439547568490253
aF0.03156273887818193
aF0.01829197272944227
aF0.02266702175661158
aF0.020013724471758348
aF-0.010733581168676697
aF-0.018640938419924945
aF0.02616116515133467
aF-0.010458025350680718
aF-0.04565627398000466
aF-0.05120807840374425
aF0.022629654423785985
asS'A6_y2.50_y3.00_fit'
p639
(lp640
F0.0
asS'A7_y4.50_y5.00_val'
p641
(lp642
F0.03012356610685217
aF-0.012948971429041603
aF-0.0018298365816729464
aF0.03714364043348838
aF0.0238719413679356
aF0.05423456972911928
aF0.0451495415328509
aF0.02247082748784005
aF-0.01660777839204461
aF-0.03445172540473186
aF0.06416714627799444
aF0.04270078916240217
aF0.0712715941661514
aF-0.04316778535301112
aF0.13928692767874648
aF-0.02019371410968348
aF-0.4211690513582543
aF-1.845853201161592
aF0.0
aF0.0
asS'A2_y1.40_y1.60_fit'
p643
(lp644
F0.0
aF-0.0016533115567526624
aF0.0005920049981682583
aF-7.849014744270894e-06
asS'A7_y2.50_y3.00_val_err'
p645
(lp646
F0.006784204984538668
aF0.004668697789944168
aF0.004661214960447925
aF0.005006449443630659
aF0.005374807256292587
aF0.00579128744339362
aF0.006235482981171907
aF0.0067199319502814795
aF0.00726536475538829
aF0.007840449692323543
aF0.006209651965298701
aF0.007142458484030025
aF0.008083251312268442
aF0.009068302624510662
aF0.01026498773370552
aF0.006201408975243347
aF0.01004855702368182
aF0.015393820058387096
aF0.017350622493545874
aF0.03870009197987
asS'A6_y0.20_y0.40_val'
p647
(lp648
F0.007531206375152015
aF0.00045056745684251935
aF-0.009616462412984179
aF-0.0028355109971560833
aF0.002422579434022463
aF-0.008289072841218915
aF-0.00880054501253569
aF-0.0034152596239099007
aF0.013655061161760998
aF0.02099010453289371
aF-0.012808481496373682
aF0.03082932972088379
aF0.0054319556883505645
aF0.006219887555796388
aF-0.004568131757757422
aF0.014374557954628749
aF0.008733652526113382
aF-0.01818046519082626
aF-0.0041383367170064805
aF-0.036466516807204724
asS'A0_y2.00_y2.50_fit'
p649
(lp650
F0.0
aF-0.0019418909585952326
aF0.000584083771060501
aF-7.265417517913206e-06
asS'A3_y1.80_y2.00_val_err'
p651
(lp652
F0.0109912056531895
aF0.0075232317057114025
aF0.007504920919169909
aF0.008003945859486213
aF0.008664049563344612
aF0.00925834400581318
aF0.009922435392210814
aF0.010773828041638449
aF0.011637840680929863
aF0.012683647136712928
aF0.010071039254091014
aF0.011571434538169728
aF0.013243149690194241
aF0.015033154497666196
aF0.016878821688923004
aF0.010124167430913301
aF0.016338059729211946
aF0.024339843998521262
aF0.027253225614914015
aF0.05488851710861042
asS'A7_y0.40_y0.60_val'
p653
(lp654
F-0.01072994504736835
aF-0.003372249569735105
aF0.013915548211023018
aF0.007593547444592246
aF0.0008131170977436374
aF-0.01026918084032011
aF0.005729648506902522
aF0.022097960301840445
aF-0.009800238335322363
aF-0.02637458015323272
aF-0.0016306930655974614
aF-0.0021576021231586293
aF0.018484958276214884
aF0.007655229637064311
aF-0.017766451028783034
aF-0.01490408093109336
aF-0.021319696450878722
aF-0.03311220928932813
aF-0.029027034179366158
aF-0.0006268352328440889
asS'A6_y3.00_y3.50_val'
p655
(lp656
F-0.00849703527283637
aF-0.012073245485867409
aF-0.001110972826293167
aF-0.0029066302250325845
aF0.0007376805678626391
aF-0.000597701178618755
aF0.017704505811902308
aF-0.005764220699943658
aF0.000425370341974167
aF0.007047430903384609
aF-0.004320472846548733
aF-0.002047635640830292
aF-0.00739395279819568
aF0.014065925800295023
aF0.009094561505772347
aF-0.006807969399642021
aF-0.0049547746992680015
aF-0.01973849143750309
aF0.0027728572962504704
aF-0.046541488280922465
asS'A5_y4.00_y4.50_fit'
p657
(lp658
F0.0
asS'A5_y4.50_y5.00_val'
p659
(lp660
F0.008053271687140184
aF0.004703592616856616
aF-0.016263563814083677
aF-0.0036236942854461513
aF0.003093403893331824
aF0.008373675800051337
aF-0.027182855942196056
aF-0.04598606054410143
aF0.07493334476988692
aF-0.0387406185642806
aF-0.13213806976194722
aF-0.11126759166671978
aF-0.01759179609737297
aF-0.0001372930104605514
aF-0.03790898891585131
aF-0.0152737537565837
aF-0.035411748538620294
aF-0.9404324961524997
aF0.0
aF0.0
asS'A5_y0.20_y0.40_val_err'
p661
(lp662
F0.012258984664177392
aF0.008351998358666771
aF0.008201296199266237
aF0.008667465226389899
aF0.009364129874613554
aF0.009973263056246866
aF0.010787227104157209
aF0.01157391778355343
aF0.012426230944292653
aF0.013411964052252468
aF0.010658815727242517
aF0.012267012077370947
aF0.014043096920967496
aF0.015676355662053623
aF0.017767878080798178
aF0.010749409264866016
aF0.01755461778817906
aF0.026055602289717466
aF0.028363544835947514
aF0.058375885724691
asS'A0_y0.00_y0.20_val_err'
p663
(lp664
F0.01600517997785331
aF0.01091241140119883
aF0.010693689695952666
aF0.011393397935151617
aF0.012128581856621372
aF0.013022047945477212
aF0.013932511898417413
aF0.014999265064483677
aF0.016049591656586683
aF0.017375945811373836
aF0.013639190949632717
aF0.015674757440810278
aF0.017619152033167097
aF0.020051794520150244
aF0.022278820893131587
aF0.01337139344521576
aF0.021339888608159042
aF0.031624280003292454
aF0.034111881161860785
aF0.06819269741331943
asS'A0_y2.50_y3.00_fit'
p665
(lp666
F0.0
aF-0.0003330578697472164
aF0.0004933922125831113
aF-6.11669354323488e-06
asS'A0_y2.00_y2.50_val_err'
p667
(lp668
F0.00981195914972901
aF0.00672903217749631
aF0.00668441157165695
aF0.007159692591992204
aF0.007682123552498644
aF0.008266576125587469
aF0.008885062155625994
aF0.009553662519059298
aF0.010245973797996227
aF0.011072105476244525
aF0.008731121088648753
aF0.01007041346829337
aF0.011318542749422103
aF0.01277505217578963
aF0.014238976953234379
aF0.008517409552417716
aF0.013617568044832336
aF0.020134453741488863
aF0.022064912337102775
aF0.045621974161937695
asS'A2_y2.50_y3.00_fit'
p669
(lp670
F0.0
aF-0.0005361650170503662
aF0.0005845897296410264
aF-8.28448240929711e-06
asS'A4_y3.00_y3.50_val_err'
p671
(lp672
F0.00898587206464797
aF0.006205803302528597
aF0.0062656822094332475
aF0.006733620732950922
aF0.007256679728256767
aF0.007850116959134575
aF0.008469817357983035
aF0.009100635192077556
aF0.00986135082949889
aF0.010644977970629558
aF0.008440060306365906
aF0.00967403875295343
aF0.010934447966903281
aF0.012267649579384957
aF0.0136937524785792
aF0.008203651391709168
aF0.013362332168944144
aF0.020656264671934925
aF0.025190155060672785
aF0.0650627550668748
asS'A1_y2.50_y3.00_val'
p673
(lp674
F0.023712064052366665
aF0.04952404041336221
aF0.08505298415231576
aF0.10140547800850323
aF0.12365261638957938
aF0.1481970293710607
aF0.1744798760810391
aF0.20034351033774853
aF0.19661205280164434
aF0.2100450911518252
aF0.2002167375968316
aF0.18879600898612542
aF0.1800058741434162
aF0.17741445092626687
aF0.15338157901927352
aF0.14358801892500442
aF0.1250143000171622
aF0.16266775847423792
aF0.13955509931840954
aF0.13771281287692927
asS'A0_y2.50_y3.00_val_err'
p675
(lp676
F0.00963481646243987
aF0.006628302786023379
aF0.006637758929006602
aF0.00713043925110706
aF0.007650425556212752
aF0.008233042227766201
aF0.00886064513001821
aF0.009562215859569822
aF0.010297667613440684
aF0.01113106161949681
aF0.008786376504892947
aF0.010128696348379982
aF0.011443624268577616
aF0.012906010698645594
aF0.014574177164143104
aF0.008769361408844897
aF0.014298146071712049
aF0.021940815992291317
aF0.024849469634455796
aF0.0550598283464887
asS'A4_y0.80_y1.00_val'
p677
(lp678
F-0.23943440955335812
aF-0.24425175816393593
aF-0.24406668891751934
aF-0.21785442907745897
aF-0.24125106140231678
aF-0.24104400323971115
aF-0.2077281897347332
aF-0.21247300330517366
aF-0.2131517828040233
aF-0.2303321786690903
aF-0.23054663898734964
aF-0.2308420172916325
aF-0.23753374480548373
aF-0.21047214203683864
aF-0.21989505209146065
aF-0.21250205415478207
aF-0.18237551570919222
aF-0.12684550994846583
aF-0.15979580200073443
aF-0.09020457203941373
asS'A0_y0.00_y0.20_val'
p679
(lp680
F0.030086431330313506
aF0.007507549647981461
aF-0.007994761607118381
aF0.003448103325415902
aF0.02317843452180262
aF0.003452291364632257
aF0.02709823859154267
aF0.04927570770514371
aF0.0627361308967298
aF0.062042272365784315
aF0.1345470102045461
aF0.16682755571972635
aF0.23562803900219947
aF0.29645699382238644
aF0.35406099942989616
aF0.4485650996165277
aF0.6041073622450792
aF0.7055687150635932
aF0.7226246072880584
aF0.8137215788764852
asS'A4_y4.50_y5.00_val'
p681
(lp682
F-1.791300536727191
aF-1.7980542983128625
aF-1.7916539067671853
aF-1.771191478443009
aF-1.7813299606111312
aF-1.7574860185599896
aF-1.74758562045573
aF-1.727579205076331
aF-1.7292411856253205
aF-1.668176548484329
aF-1.6384458196322556
aF-1.5009287486208214
aF-1.4821325543708392
aF-1.2719156385508212
aF-1.240657600991685
aF-1.1852453182272384
aF-0.7492522763064943
aF-2.1008468504924975
aF0.0
aF0.0
asS'A5_y1.00_y1.20_fit'
p683
(lp684
F0.0
asS'A5_y0.00_y0.20_val'
p685
(lp686
F0.0015558561170238975
aF0.007172098117162599
aF-0.004769022754677868
aF0.018716014700714243
aF-0.020833988015628906
aF-0.0078609550333705
aF0.0022971714248037696
aF0.014325997076841174
aF0.0101617777837561
aF0.005499323868917419
aF-0.020114831678964794
aF0.0008374817691819339
aF0.013928075851289296
aF0.005391226564757866
aF-0.0022472360774435174
aF0.008639877533671639
aF-0.01624847375993556
aF0.006178791274695169
aF-0.009036876082366833
aF0.040358608954738
asS'A4_y0.20_y0.40_val'
p687
(lp688
F-0.07271737809941925
aF-0.07826993341321507
aF-0.0666386155350543
aF-0.0627968281624229
aF-0.0746986828890974
aF-0.06517862857531324
aF-0.08705243284321455
aF-0.07705746245314554
aF-0.07541493401248008
aF-0.07046350270359063
aF-0.05485934804076724
aF-0.07782162502308149
aF-0.0687108453114261
aF-0.06361469805917243
aF-0.06435400453246441
aF-0.05835254464978615
aF-0.05592700973935707
aF-0.033486128886744876
aF-0.020399070572772616
aF-0.019670864943448163
asS'A7_y2.00_y2.50_val'
p689
(lp690
F-0.0074423035383616625
aF-0.003296029511007865
aF-0.003921010793798042
aF-0.0029276721714658806
aF-0.0031768912058135344
aF0.01017600066662862
aF0.01211340265488655
aF-0.005519026092636225
aF-0.0004756653176668421
aF0.007162230774928683
aF0.00482724081380598
aF-0.003963623198226841
aF0.008240877389022109
aF0.0007596934637939949
aF-0.0018268571459263872
aF-0.007786871303364683
aF0.0021201332529882273
aF-0.002373993519343938
aF-0.011403793544896752
aF-0.02113720189266898
asS'A7_y1.20_y1.40_fit'
p691
(lp692
F0.0
asS'A7_y1.00_y1.20_fit'
p693
(lp694
F0.0
asS'A4_y0.20_y0.40_fit'
p695
(lp696
F-0.06981979009823447
asS'A1_y0.40_y0.60_val'
p697
(lp698
F0.02099719736778513
aF0.010539066307882629
aF0.030507862297420116
aF0.038507309393626954
aF0.0604347388407882
aF0.05879416314386755
aF0.04859220596307602
aF0.06796320349537238
aF0.08180124650802051
aF0.11098693607873393
aF0.08955369065444221
aF0.0651624851692426
aF0.06562498556542722
aF0.05194705677830895
aF0.04465567905507843
aF0.016123411412111127
aF0.034044580268404206
aF0.015052320028427442
aF0.02845648214061823
aF0.02287047114079044
asS'A1_y0.00_y0.20_val'
p699
(lp700
F0.00941962763488101
aF0.004073354382309377
aF-0.0021043680787919327
aF0.0004617225528605248
aF-0.006255335980353736
aF0.01829165749887401
aF0.010850058242670756
aF0.002119474934817194
aF0.017795003547155783
aF0.003915564586031027
aF0.01650450374885996
aF0.03661177459354286
aF-0.010159464746706754
aF-0.020158112058177906
aF0.024541717017685896
aF0.018733337476063358
aF0.0013160271879682193
aF0.012568987688720853
aF0.04242251719352431
aF0.0310083545232584
asS'A5_y4.00_y4.50_val_err'
p701
(lp702
F0.010393194751537197
aF0.00738467072893635
aF0.007693787151764302
aF0.008584633329982636
aF0.009446635096087938
aF0.010351042849934123
aF0.011489311813541651
aF0.012667331773277671
aF0.014110959249104991
aF0.015773872654375833
aF0.013047674899893214
aF0.015916994604274544
aF0.019261001186544092
aF0.023066897315965722
aF0.02733896861966438
aF0.020023419454643997
aF0.047748113183829696
aF0.11559739742345876
aF0.2558046454482181
aF3.3790891639774796
asS'A3_y1.40_y1.60_val_err'
p703
(lp704
F0.011131015593277777
aF0.007602791601083285
aF0.007488826955159186
aF0.008021238747733484
aF0.008613786643222193
aF0.009258204596574837
aF0.009995540794343115
aF0.010707883427849577
aF0.0116491138295079
aF0.012559756561749465
aF0.010092082085537428
aF0.011507857410044547
aF0.013231584873210491
aF0.014979446541870722
aF0.016719772307467486
aF0.010115384575181552
aF0.016421624756387747
aF0.024581018143067943
aF0.026854026738167405
aF0.052882934676038267
asS'A2_y0.00_y0.20_val'
p705
(lp706
F-0.024442848883145796
aF0.011524311505268281
aF0.04266302101606114
aF0.061908523853558765
aF0.029394593601043534
aF0.07098387788553717
aF0.05759146457617941
aF0.05145424621147481
aF0.1126986925190958
aF0.08433317012420803
aF0.13695445369737896
aF0.16215727567667154
aF0.22151292670585462
aF0.26821432766980013
aF0.3502960840688753
aF0.3941545628373564
aF0.4825879477410054
aF0.6295052067871921
aF0.618850589312784
aF0.5920278219123182
asS'fit_range'
p707
(lp708
F0.0
aF50.0
asS'A4_y1.20_y1.40_val_err'
p709
(lp710
F0.013004892270699031
aF0.008873749983109988
aF0.008767097365835164
aF0.009339196642537729
aF0.009948428019059048
aF0.010590506369630784
aF0.011428959753964654
aF0.012231986178420947
aF0.013121015871984668
aF0.014221512939839883
aF0.011025070036584256
aF0.012578959600204023
aF0.01397770773660998
aF0.015878985011800375
aF0.017645839982712633
aF0.010401917539576434
aF0.016000800860746383
aF0.02307703023315561
aF0.024450996392884856
aF0.047064593459316205
asS'A6_y0.80_y1.00_val'
p711
(lp712
F0.031103370333284027
aF0.019505176466608723
aF0.0007402597808592748
aF-0.007527858521803579
aF-0.004699446036775019
aF0.0077194369922975
aF-0.00144751558617921
aF0.007610272463235944
aF-0.005744179292498601
aF-0.029721906536817538
aF0.028289797700539625
aF1.2852357327103235e-05
aF0.0061721716719523164
aF0.007305384398377349
aF-0.01036967188644759
aF-0.006365361683357227
aF-0.018694342954134482
aF0.03329010982245243
aF-0.0007232490324847456
aF-0.007168267867762557
asS'A3_y1.00_y1.20_val'
p713
(lp714
F-0.015381886585400916
aF-0.017688603558816608
aF-0.0390859969704102
aF-0.05185127510837124
aF-0.043590254789534835
aF-0.06557232239730611
aF-0.08418846316607108
aF-0.07469288130310149
aF-0.11284276569423364
aF-0.11933893501611541
aF-0.11742883031979597
aF-0.08662955618494597
aF-0.09762795097690945
aF-0.0943701783429718
aF-0.0980693745967913
aF-0.09797524218707176
aF-0.1362019512716727
aF-0.1653706958537201
aF-0.32331826077154047
aF-0.419689056247274
asS'A2_y1.60_y1.80_fit'
p715
(lp716
F0.0
aF0.007874581369771191
asS'A0_y1.40_y1.60_fit'
p717
(lp718
F0.0
aF-0.0002646228269972961
aF0.0004720640834286645
aF-5.636346952055734e-06
asS'A2_y3.50_y4.00_val'
p719
(lp720
F-0.014873597370868597
aF0.0041937409650202465
aF0.0019951416166212837
aF0.0403966594546429
aF0.07533951113887866
aF0.07414244339809548
aF0.09926862372002565
aF0.09695660221023682
aF0.16443488409731574
aF0.18209470534204597
aF0.21966778419971328
aF0.28885275529450627
aF0.355590487269714
aF0.43470895459643055
aF0.44471350869031523
aF0.4390409769550888
aF0.5383343099234
aF0.6666632415471798
aF0.6382505034353898
aF0.989818213386388
asS'A0_y0.80_y1.00_val_err'
p721
(lp722
F0.015874256933783054
aF0.010914240500547097
aF0.010693889307487756
aF0.011352428896611293
aF0.012142831897666465
aF0.013032992708695972
aF0.01391965855420232
aF0.015006940065324045
aF0.016121877213846173
aF0.017375184742012283
aF0.013667592321662486
aF0.015665406527902354
aF0.01770235542124842
aF0.019986933982277494
aF0.02229159708443354
aF0.013374412571748767
aF0.021491804327555944
aF0.03136584366216608
aF0.03410393841689747
aF0.068452819527327
asS'A3_y1.80_y2.00_fit'
p723
(lp724
F0.0
aF-0.014401841048726438
aF0.0003448589606462639
aF-3.1252300517650266e-06
asS'A5_y3.50_y4.00_val'
p725
(lp726
F-0.0013088650323715032
aF0.011909046268723644
aF-0.007298830107620552
aF0.008724961856009055
aF-0.005170665186922333
aF0.004708313260450505
aF0.006054488597678864
aF-0.0034789399084993707
aF-0.01642585922734662
aF0.0026122108325830657
aF0.007909519954469429
aF-0.003282373209071633
aF0.01192318495712291
aF-0.00327843261231395
aF-0.007145572863082293
aF0.005519139559073904
aF-0.0024138477490407585
aF-0.10882552438257073
aF0.08836945897487175
aF0.1892060161252609
asS'A2_y0.60_y0.80_fit'
p727
(lp728
F0.0
aF-0.0016871858441273313
aF0.0006236086687939017
aF-8.9442447211688e-06
asS'A4_y1.80_y2.00_val_err'
p729
(lp730
F0.013139360026963904
aF0.008954046781835832
aF0.008876843649335959
aF0.009491191954681767
aF0.010187549444405681
aF0.010882009680875538
aF0.011662841971094113
aF0.012473109668535966
aF0.013383437757703329
aF0.014523376388094101
aF0.011419781818551394
aF0.012948897622226117
aF0.014492147058760708
aF0.016177828658732085
aF0.018104586365650384
aF0.01051732811635797
aF0.01620898463891021
aF0.02363479675575016
aF0.0247392172801553
aF0.048381870823220915
asS'A0_y0.60_y0.80_val_err'
p731
(lp732
F0.0160013230469528
aF0.010863360440990575
aF0.010709131883857212
aF0.01136973013574611
aF0.012198993574083024
aF0.012981907275901344
aF0.014034929676060723
aF0.01492447147784879
aF0.01611352861242895
aF0.01739404708537976
aF0.013743587379394089
aF0.0157113960477863
aF0.017726013449329538
aF0.01991845115900261
aF0.022409085145325473
aF0.013436361125977247
aF0.021373737376148554
aF0.032003508554490016
aF0.033867660544633464
aF0.06827065301789806
asS'A6_y4.00_y4.50_val'
p733
(lp734
F0.008273316165713434
aF-0.00016273320572552074
aF-0.00026452038012891215
aF-4.836407587988303e-05
aF-0.0014033118914749648
aF-0.00028697774106686494
aF0.022047684349614818
aF-0.018766182382221816
aF0.0063995656769111646
aF-0.0037628436019893174
aF0.007433289027780304
aF0.0020106461225417585
aF-0.0018096822387915685
aF-0.016344794207844893
aF-0.013792709362955884
aF0.024400413567419232
aF-0.04540233008195816
aF-0.03522210347323319
aF0.013945663175426832
aF4.114874338115656
asS'A6_y2.00_y2.50_val'
p735
(lp736
F0.004300575226560234
aF0.0012211014972707858
aF-0.0035003253583720355
aF0.010776930772591209
aF-0.016236748920959946
aF-0.0031393689202784737
aF-0.005982597515781907
aF-0.0016373125423139816
aF0.007752317014206144
aF0.007466754964070222
aF0.00876763864500692
aF-0.0030457513079508148
aF0.00616895884826609
aF0.011858420247195715
aF-0.003474380686535987
aF-0.0021928589610753623
aF0.0072639255523209555
aF-0.010303971813319624
aF-0.01202074999670266
aF0.05707415949468303
asS'A0_y1.20_y1.40_val_err'
p737
(lp738
F0.01589791273733268
aF0.010826625800581309
aF0.01071386338130207
aF0.01140694308262259
aF0.012168377854603677
aF0.012990673160025463
aF0.014010392567143889
aF0.014969921332360449
aF0.016089068075709125
aF0.01746796222021998
aF0.013632572635269664
aF0.015719193025455887
aF0.017614103506255002
aF0.02001870098778905
aF0.022513069159357954
aF0.013446628196079622
aF0.021353528328039585
aF0.03134777093377974
aF0.03366899451192624
aF0.06770764223950536
asS'A4_y0.20_y0.40_val_err'
p739
(lp740
F0.0129212285566701
aF0.00882349930961053
aF0.008693464696565747
aF0.009212841576813438
aF0.009800330650943592
aF0.010523825940563176
aF0.01127158761102746
aF0.012172353994954309
aF0.013030488186778131
aF0.013975213566788113
aF0.010974473667958536
aF0.012453289991139245
aF0.014073288152475763
aF0.01564345405501106
aF0.01739593168875627
aF0.010254669222022516
aF0.016000632424452595
aF0.02309469424155286
aF0.024562491742092848
aF0.04691345438442843
asS'A7_y4.50_y5.00_val_err'
p741
(lp742
F0.021495983537441875
aF0.016172021218547276
aF0.0173747285506022
aF0.02001460120663676
aF0.02259532603729174
aF0.02528051017884068
aF0.02838942725125409
aF0.031877806179011176
aF0.035816673986862474
aF0.04179695327278558
aF0.03482138286831244
aF0.04497546343044239
aF0.05448845052814422
aF0.07021851911553448
aF0.09049503537490941
aF0.08686999701825861
aF0.34744120482240604
aF1.8832003340491288
aF0.0
aF0.0
asS'A5_y4.00_y4.50_val'
p743
(lp744
F0.007320865629238186
aF-0.0043658812612640905
aF-0.009439232020309826
aF-0.0007227151966898034
aF-0.0029847618210378053
aF0.014129425260851333
aF0.00047773712914969804
aF0.01103421014669439
aF0.024407362373611345
aF-0.01949905791957205
aF0.010072775458835207
aF0.0024472036559663327
aF-0.0016614748105392772
aF0.013394964312783536
aF-0.01463600033410723
aF-0.020043383301626173
aF-0.021132654938907685
aF0.06394123324045273
aF-0.17539589554927737
aF2.3893768620824574
asS'A3_y1.20_y1.40_val'
p745
(lp746
F0.0006280101051504434
aF-0.025095651799819107
aF-0.050720635629980235
aF-0.06400849254071526
aF-0.07622522871315272
aF-0.07391672936281753
aF-0.09010733637273098
aF-0.10317552143350094
aF-0.1276711540756151
aF-0.09747920803222952
aF-0.10783276337515064
aF-0.13097167829918122
aF-0.13225470717075033
aF-0.12993730069552004
aF-0.15036540793119765
aF-0.11216584580094312
aF-0.17270643063971053
aF-0.21952385497374524
aF-0.346412304434927
aF-0.4689962429348833
asS'A0_y0.40_y0.60_fit'
p747
(lp748
F0.0
aF-0.005968041823409265
aF0.0007340639652663513
aF-8.679280825723721e-06
asS'A1_y1.80_y2.00_fit'
p749
(lp750
F0.0
aF0.012104715788944655
aF0.00025067421581141495
aF-2.8266982410591587e-05
aF3.8305802741095305e-07
asS'A0_y4.00_y4.50_val_err'
p751
(lp752
F0.013478203376609753
aF0.009643995079534928
aF0.010083186413207518
aF0.011198274525487873
aF0.012352735951227631
aF0.013571439986535733
aF0.014988970881859876
aF0.016426381469627053
aF0.018213345646093983
aF0.020272271774431805
aF0.01678717777329466
aF0.020257143803117893
aF0.024467517466914668
aF0.02965591513451358
aF0.034825222130039246
aF0.0249591416521956
aF0.05942784149517558
aF0.13783333485493005
aF0.28467942656228196
aF1.9930752117766615
asS'A6_y0.80_y1.00_val_err'
p753
(lp754
F0.013682795893766527
aF0.009280048286470468
aF0.009128875584913522
aF0.009705856307246215
aF0.010353831514222919
aF0.01114045338141108
aF0.011954489486938343
aF0.012772839187090353
aF0.013738274187505468
aF0.014776142422550235
aF0.011557290163609795
aF0.01314454213574586
aF0.014835242410011502
aF0.016589113601043183
aF0.018505170901527774
aF0.010988766830754355
aF0.017367497258029312
aF0.024725700280809997
aF0.026476965918140315
aF0.05075538021282459
asS'A4_y1.20_y1.40_fit'
p755
(lp756
F-0.3719319936550529
aF0.0006399140501955076
asS'A3_y2.50_y3.00_fit'
p757
(lp758
F0.0
aF-0.02262311320178781
aF0.0005419567124453004
aF-5.275058880403706e-06
asS'A2_y4.50_y5.00_fit'
p759
(lp760
F0.0
aF-0.02013661375171716
aF0.0035975673765759088
aF-5.5333433950078664e-05
asS'A2_y1.80_y2.00_val'
p761
(lp762
F-0.007019301889527
aF-0.007684416479684308
aF0.04960579804589799
aF0.04471509306483167
aF0.05919581348095562
aF0.055405224618490845
aF0.054367394813995384
aF0.13809577476546187
aF0.10545014869838117
aF0.19314718124450883
aF0.19491226063722347
aF0.22641475155679988
aF0.27385546365915686
aF0.404885740185614
aF0.3855765817212369
aF0.36252288528482435
aF0.4586762931203229
aF0.5330358261574931
aF0.6219753346534446
aF0.710734197050251
asS'A3_y4.50_y5.00_val'
p763
(lp764
F-0.04365724703138562
aF-0.09218667133618985
aF-0.1713832975975851
aF-0.23327565156543198
aF-0.3156723989478178
aF-0.3260981358651632
aF-0.4038987704454202
aF-0.5456825945835838
aF-0.5998692195914296
aF-0.7040648377859064
aF-0.7843800550712898
aF-1.0228138366885668
aF-1.0313097747472608
aF-1.1217803199861187
aF-0.9850995641425424
aF-0.9816391136496186
aF-0.7435341794377388
aF0.02411439300361805
aF0.0
aF0.0
asS'A3_y2.00_y2.50_val_err'
p765
(lp766
F0.006884947012083468
aF0.004740152003026391
aF0.0047105466688726295
aF0.005062014281949687
aF0.005433861498562645
aF0.0058716637811232425
aF0.006365072103504527
aF0.006860703825384687
aF0.007385291603594629
aF0.008007333191169527
aF0.006364197352851369
aF0.007396062268240156
aF0.00840597185993786
aF0.009553209258619315
aF0.010700974412486866
aF0.006473972061366871
aF0.010604106608565471
aF0.015984625054232985
aF0.017870982309547673
aF0.03820289135501177
asS'A0_y4.00_y4.50_fit'
p767
(lp768
F0.0
aF-0.009320207475155773
aF0.0010389593391682862
aF-1.3501529011723036e-05
asS'A4_y0.80_y1.00_val_err'
p769
(lp770
F0.012973086957265345
aF0.008843043872295777
aF0.008709450810362744
aF0.009222684233373264
aF0.009839601565034738
aF0.010629248598189592
aF0.011343345750213917
aF0.012140548485660145
aF0.013047232356182999
aF0.014014940923276964
aF0.010990135488318974
aF0.012462949452902957
aF0.014035315593314102
aF0.015611503038425924
aF0.017387334616020003
aF0.010262075192439461
aF0.016148298247941832
aF0.02284957867018067
aF0.024623939008077283
aF0.04686853003034763
as.