(dp0
S'A2_y0.00_y0.40_val'
p1
(lp2
F0.001468684909285995
aF0.002405834582698247
aF-0.0014336173658713865
aF0.020066328774956028
aF0.010620138471645746
aF0.02693941555385189
aF0.04386338444884115
aF0.03864112185697605
aF0.0271372752085249
aF0.06581753275167712
aF0.1292138394533211
aF0.20994470454377173
aF0.33978005317130106
aF0.6036113662974798
asS'A0_y1.60_y2.00_fit'
p3
(lp4
F0.0
aF0.0
aF0.0004198432393846298
aF-4.705833285912199e-06
asS'A0_y1.60_y2.00_val'
p5
(lp6
F-0.0217612883286176
aF0.0013302202558892761
aF0.0048846441561864636
aF0.012914259792037912
aF0.023413644783579456
aF0.05089434805523028
aF0.06927187182979795
aF0.07514595582252667
aF0.10701792858682983
aF0.16517887713377502
aF0.23881401173934044
aF0.31965552896404476
aF0.4547292678563177
aF0.693092539008704
asS'A3_y2.00_y2.50_val_err'
p7
(lp8
F0.006273835593547893
aF0.003976899059411998
aF0.00460606014282639
aF0.005248592151635392
aF0.006582127070925526
aF0.008256502860796822
aF0.008569873054806639
aF0.010773061298769347
aF0.012331466757355239
aF0.016808158578557837
aF0.020566486603157998
aF0.02607281530513967
aF0.030323853169654056
aF0.047831142142975173
asS'A4_y3.50_y5.00_val'
p9
(lp10
F-1.878761986305107
aF-1.8654020275254768
aF-1.8524647869292268
aF-1.8444167264028906
aF-1.8308817762655734
aF-1.8145210752273568
aF-1.8073605466251448
aF-1.775232351937683
aF-1.754626847311886
aF-1.7130075189906784
aF-1.6302841654667126
aF-1.5175821443677715
aF-1.371612348958197
aF-1.1097544134743478
asS'A2_y0.80_y1.20_val'
p11
(lp12
F0.007402751800369408
aF0.013720064792792095
aF0.00669358383744848
aF0.006783831486458069
aF0.03473056147542833
aF0.03476531518463986
aF0.03568581918519139
aF0.06425334774833011
aF0.05697959037876851
aF0.1088284443276548
aF0.1394557823060996
aF0.21662837089218856
aF0.38532859929572527
aF0.6055906496419216
asS'A1_y1.20_y1.60_fit'
p13
(lp14
F0.0
aF0.00964355540993618
aF0.0003127045446199373
aF-2.1771623731892082e-05
aF2.4681012756856103e-07
asS'A3_y3.50_y5.00_val_err'
p15
(lp16
F0.005221314815467283
aF0.005938767837262445
aF0.008591036720584885
aF0.01320192926495101
aF0.018974411840017927
aF0.024667304665582056
aF0.028827998024424255
aF0.03653007187978016
aF0.040775949612327674
aF0.052801249887786984
aF0.05790614958246712
aF0.07295617868286453
aF0.07966634591134121
aF0.10146976742449651
asS'A2_y0.00_y0.40_fit'
p17
(lp18
F0.0
aF0.0
aF0.000156406405446426
aF-3.2680369363528037e-07
asS'A0_y0.40_y0.80_fit'
p19
(lp20
F0.0
aF0.0
aF0.0003601560429604186
aF-3.52246140539734e-06
asS'A4_y0.00_y0.40_val_err'
p21
(lp22
F0.007495538417351769
aF0.005415855111279211
aF0.005224089220633661
aF0.005988275612143504
aF0.005895820181524056
aF0.006642896912953437
aF0.00710930815231369
aF0.008086704289958495
aF0.006131625652099493
aF0.008044409941389588
aF0.00634809555910429
aF0.008981635796090225
aF0.007854350008839993
aF0.009690307832771396
asS'A3_y2.50_y3.00_val_err'
p23
(lp24
F0.005442756386136416
aF0.004410723066631353
aF0.004944413767829624
aF0.0062281438916915125
aF0.008708240795201768
aF0.009702910486991526
aF0.012923433927930002
aF0.01590463668764933
aF0.020551175765008308
aF0.02382675799185632
aF0.030171168687117972
aF0.036733799753901154
aF0.047715408833226246
aF0.07138081736207479
asS'A3_y0.00_y0.40_fit'
p25
(lp26
F0.0
aF0.0033464585885975284
aF-0.0002855872162513817
aF8.280489476768845e-06
aF-7.92362202942276e-08
asS'A0_y3.00_y3.50_val_err'
p27
(lp28
F0.007578806583151186
aF0.006115238024376875
aF0.005683348792326767
aF0.00638603276897826
aF0.006825717008156569
aF0.00884600870672136
aF0.012508162001357908
aF0.01254121125973003
aF0.014462512570905495
aF0.022823915668758032
aF0.026550008087995142
aF0.04182248609601874
aF0.04458053205707856
aF0.06035956362892708
asS'A1_y1.60_y2.00_val_err'
p29
(lp30
F0.0075840605968422676
aF0.005441505928571474
aF0.006200879206598343
aF0.007778953535086832
aF0.008821333525060739
aF0.012567849025189001
aF0.010411431723726019
aF0.011660035491598112
aF0.015456470624536383
aF0.015118826698796535
aF0.019396105786676755
aF0.016776259822678934
aF0.01400961062956413
aF0.013273380955375367
asS'A3_y0.40_y0.80_val'
p31
(lp32
F0.004389559068383736
aF0.007762377265984673
aF0.0036583326985801714
aF0.010209030316719742
aF0.007362161819152584
aF0.00034546404957967936
aF0.0009762458735480294
aF0.014116685115903863
aF0.001720775765036093
aF-0.008279676009607311
aF-0.01669456233243794
aF-0.021506354989016832
aF-0.025081485681402237
aF-0.08982524849629281
asS'A4_y0.40_y0.80_val'
p33
(lp34
F-0.14940558841449267
aF-0.16080769670181155
aF-0.15011606582271822
aF-0.1381958255228195
aF-0.12837333539700407
aF-0.1254453565826795
aF-0.14205534088600244
aF-0.13972374130362739
aF-0.12763857306587312
aF-0.137434391869187
aF-0.11712147602269105
aF-0.10052623461526418
aF-0.11053382452253709
aF-0.07928000980563402
asS'A0_y0.80_y1.20_val_err'
p35
(lp36
F0.009050743458710367
aF0.007275306896273256
aF0.006547145932091427
aF0.007278357611851457
aF0.008307725843680487
aF0.009669832264695045
aF0.012234533629567692
aF0.015330265398043356
aF0.016457562044126857
aF0.023599202723625208
aF0.037771345887086964
aF0.04408424242995261
aF0.06266465127067282
aF0.06712517333465265
asS'A4_y2.00_y2.50_fit'
p37
(lp38
F-0.8544111008666455
aF0.009388435169613185
aF-0.0004230301434968685
aF1.1695401336853334e-05
aF-1.0278653524621137e-07
asS'A4_y3.50_y5.00_val_err'
p39
(lp40
F0.13184333715337862
aF0.1301805678011618
aF0.1288784539696656
aF0.13003556963177978
aF0.12635436514065407
aF0.13064413757366208
aF0.1325553899718284
aF0.13097697430518035
aF0.13324696416463253
aF0.14327422422652983
aF0.14500742963750848
aF0.1605238245505659
aF0.13772183298416865
aF0.10889783404780815
asS'A4_y1.20_y1.60_fit'
p41
(lp42
F-0.44046225525191224
aF0.01140973647975388
aF-0.0007214592968310118
aF2.0950580152731134e-05
aF-2.0013225330251528e-07
asS'A3_y0.80_y1.20_val'
p43
(lp44
F-0.0032174145614261053
aF0.00627320125591224
aF-0.002484010010074197
aF-0.003999181862805491
aF-0.00905374994168253
aF-0.005710832971670725
aF-0.012325726236904089
aF-0.019973966958787892
aF-0.03120822259560412
aF-0.03944460148957641
aF-0.04571289219468379
aF-0.047530026773562585
aF-0.05238616239169776
aF-0.14863783975363265
asS'A3_y3.50_y5.00_fit'
p45
(lp46
F0.0
aF-0.019408365047236753
aF-0.0008006948369627034
aF3.233198487896628e-05
aF-3.0783463382131067e-07
asS'A1_y3.00_y3.50_val'
p47
(lp48
F0.01722214874097267
aF0.031902658934303815
aF0.05887221065463443
aF0.07199573942378903
aF0.10831662224612161
aF0.129049228359512
aF0.14235861385504728
aF0.1848409033125822
aF0.20165880783837206
aF0.228375574348023
aF0.23903158527553153
aF0.2117354083618313
aF0.1961055261474488
aF0.21588635206463871
asS'A2_y3.00_y3.50_val_err'
p49
(lp50
F0.011462491989566979
aF0.008659978521202049
aF0.008378542830885018
aF0.009065037778742614
aF0.009785766834836725
aF0.011572434891459723
aF0.01231242176246815
aF0.014457125493482199
aF0.015789462937996365
aF0.01686974838701749
aF0.019720444378644047
aF0.03796108399828769
aF0.03382006183988567
aF0.05078459372800241
asS'A3_y1.20_y1.60_val'
p51
(lp52
F0.0009135647170237532
aF-0.0095770558013043
aF-0.01107224254549548
aF-0.01989318977236901
aF-0.0223114779913538
aF-0.03103013031348444
aF-0.04672025407230461
aF-0.03775860798292917
aF-0.054793233800417576
aF-0.06887889523862648
aF-0.08561057176925484
aF-0.08234526298683714
aF-0.11227283396163154
aF-0.23285756826434464
asS'A2_y3.50_y5.00_val'
p53
(lp54
F0.0025489509397886904
aF0.0038751147426946083
aF0.004269605871605612
aF0.03573072051078772
aF0.018082352689724503
aF0.041481005811263606
aF0.052300765657673165
aF0.07070396024334948
aF0.09987602995293991
aF0.14403842594730207
aF0.17520560576358543
aF0.2653142961808246
aF0.3852449682355083
aF0.5514358157477826
asS'A3_y0.00_y0.40_val'
p55
(lp56
F-0.001279113997899086
aF-0.002474594500981305
aF0.009270639571817025
aF0.009696910906513498
aF0.020917650060442338
aF0.012140170269761419
aF0.021486694545713697
aF-0.0012854915359882045
aF0.010688438096762757
aF0.0025360203171179616
aF-0.0023534102212967797
aF0.014051447786336612
aF-0.008001695673515429
aF-0.06350594481811729
asS'A2_y0.40_y0.80_val_err'
p57
(lp58
F0.013234314290574945
aF0.009104660316104587
aF0.009037555419715532
aF0.010413500480875089
aF0.011066879695267649
aF0.011705242129510945
aF0.01303325434385151
aF0.01399468717571791
aF0.011001103222002784
aF0.017204773526254682
aF0.0183042893744998
aF0.03708827782689057
aF0.03489900328353158
aF0.06008836014974047
asS'A1_y0.80_y1.20_fit'
p59
(lp60
F0.0
aF0.008518602022836247
aF0.00021947560057536397
aF-1.7645152949857584e-05
aF2.0826396855988108e-07
asS'A1_y0.40_y0.80_val_err'
p61
(lp62
F0.008074354037555801
aF0.005132989801075909
aF0.005766011920383438
aF0.0060892864786264295
aF0.0063906583500360605
aF0.007312309211732335
aF0.008692065716104506
aF0.008589607967297392
aF0.00873534563967153
aF0.01107919933933661
aF0.01166007710559405
aF0.011037205807718498
aF0.015967596000878017
aF0.012145720737117088
asS'A4_y2.50_y3.00_fit'
p63
(lp64
F-1.1783062369079427
aF0.012187585457117678
aF-0.0006062129123436989
aF1.777416090656186e-05
aF-1.5961800537551185e-07
asS'A0_y1.60_y2.00_val_err'
p65
(lp66
F0.008902074658506766
aF0.0062221069137444384
aF0.006512628462258036
aF0.007061158057470482
aF0.007724025001963028
aF0.010149895245162029
aF0.01218724676940516
aF0.012042339440777114
aF0.015105278803387058
aF0.024462790152864546
aF0.03312561859492612
aF0.042756103918525565
aF0.05322798091188413
aF0.06299620090722939
asS'A4_y0.40_y0.80_fit'
p67
(lp68
F-0.16618037581815803
aF0.00665315140670783
aF-0.0005016246468312682
aF1.631876146289239e-05
aF-1.699601140297766e-07
asS'A4_y2.00_y2.50_val'
p69
(lp70
F-0.8397502040694406
aF-0.8404650198154195
aF-0.8143147402931311
aF-0.8044554556823976
aF-0.7939850059809284
aF-0.7888930587371026
aF-0.7808828654912929
aF-0.7663028338294074
aF-0.7793511613455915
aF-0.7491033052192401
aF-0.7283250941805018
aF-0.6914668122979531
aF-0.6231435527097106
aF-0.4703151713537414
asS'A1_y1.60_y2.00_fit'
p71
(lp72
F0.0
aF0.011897199474529746
aF0.00019444336217373792
aF-2.0263616919239075e-05
aF2.4978350406331064e-07
asS'A1_y3.50_y5.00_val_err'
p73
(lp74
F0.005291218436726073
aF0.004212312714164267
aF0.005317705666917067
aF0.00824854702026648
aF0.010250863089769729
aF0.014256846793352306
aF0.01694916738997919
aF0.02026765498738216
aF0.022003221554262847
aF0.02498014929541454
aF0.024928046525989817
aF0.02900987203190293
aF0.03074517420454246
aF0.040424943139068054
asS'A2_y2.00_y2.50_val_err'
p75
(lp76
F0.012213173522938894
aF0.007928771717622898
aF0.008839254148056142
aF0.009433387254704058
aF0.010501939761402892
aF0.011495402561986693
aF0.013142747487458264
aF0.01562797898264476
aF0.012558235765087791
aF0.016997312514893566
aF0.021097992567814354
aF0.02760905142875713
aF0.04024798553562298
aF0.05014895994440886
asS'A1_y3.00_y3.50_fit'
p77
(lp78
F0.0
aF0.009304674078187608
aF0.00047141190740358774
aF-2.5943838876229608e-05
aF2.870190545665683e-07
asS'A3_y3.00_y3.50_fit'
p79
(lp80
F0.0
aF-0.013514931414796053
aF-0.0006849891076842803
aF3.0403178262269448e-05
aF-3.285777093071681e-07
asS'A4_y0.00_y0.40_fit'
p81
(lp82
F-0.05602232565736187
aF0.003949328578940203
aF-0.0003415716029166252
aF1.1098349843757338e-05
aF-1.1199184442355417e-07
asS'A1_y0.00_y0.40_val_err'
p83
(lp84
F0.008063186314914199
aF0.005145103176772687
aF0.005101553551738216
aF0.0055981982299769485
aF0.0061044690069888006
aF0.0072582377276521285
aF0.0072808781266962
aF0.008059743582646692
aF0.006632879328684251
aF0.00930403455257418
aF0.008451023400527708
aF0.008819080815918477
aF0.0094312346640551
aF0.013101885921534492
asS'A0_y0.40_y0.80_val_err'
p85
(lp86
F0.009590226048512911
aF0.006352021633159118
aF0.006611854161298087
aF0.007148670142487888
aF0.008509433056856386
aF0.009519279288842025
aF0.01280423767704978
aF0.011687942374275406
aF0.01573085370654322
aF0.022707262821508624
aF0.03330695149105374
aF0.04403530302659763
aF0.05238112314428787
aF0.0700329226826314
asS'A4_y2.50_y3.00_val_err'
p87
(lp88
F0.06123762942383227
aF0.058542181295759825
aF0.05935938956167587
aF0.0601759419539765
aF0.06289604950812676
aF0.06540796360843343
aF0.06754324355560061
aF0.07637602606606693
aF0.07626307498960899
aF0.09117647653178758
aF0.10048755304087993
aF0.11153858210104385
aF0.09722468799595665
aF0.05992426296834392
asS'A4_y1.20_y1.60_val_err'
p89
(lp90
F0.020480156661759893
aF0.019335518085641528
aF0.018972174695083402
aF0.019249576690334738
aF0.020163406708996832
aF0.021868041891210353
aF0.022644838997320473
aF0.025499047176692383
aF0.026173547418324634
aF0.030624339207175656
aF0.03158746729050903
aF0.03729259379677358
aF0.03552630374548349
aF0.024984447897602045
asS'A1_y2.00_y2.50_val'
p91
(lp92
F0.011661455829489145
aF0.030461920205769343
aF0.05391679021007112
aF0.08034520502741613
aF0.10599159403727425
aF0.12740011844129856
aF0.1623320799252748
aF0.17519745367532089
aF0.20053308070096995
aF0.21136238235338323
aF0.21538065596406913
aF0.18103272472891202
aF0.1358327777993089
aF0.08713805102920014
asS'A3_y3.00_y3.50_val_err'
p93
(lp94
F0.006232474409296777
aF0.005008325508784157
aF0.00697328886871276
aF0.008227950954209674
aF0.012256103968585128
aF0.015303752255061007
aF0.020412594634416286
aF0.024200562183985218
aF0.027850273255682245
aF0.03337037501507511
aF0.043282753335234805
aF0.05465411146766779
aF0.062303662928665675
aF0.08984972943660266
asS'A2_y0.00_y0.40_val_err'
p95
(lp96
F0.015038544408723698
aF0.009101782235494894
aF0.009033021026203788
aF0.01043053632639884
aF0.010534812402349682
aF0.01146201117851268
aF0.014703655333115297
aF0.013774511292962394
aF0.011333985278295365
aF0.013383114012949346
aF0.022182299179695684
aF0.025861390160670992
aF0.03301585398797624
aF0.057335221764609805
asS'A4_y1.60_y2.00_fit'
p97
(lp98
F-0.6196834723480116
aF0.012761298103405067
aF-0.0007833301782886083
aF2.220115326505138e-05
aF-2.0252295906436617e-07
asS'A0_y1.20_y1.60_fit'
p99
(lp100
F0.0
aF0.0
aF0.00045244985384092044
aF-5.368741397052807e-06
asS'A2_y1.20_y1.60_val'
p101
(lp102
F0.008664514767607526
aF-0.005068497779988122
aF0.023186639144687493
aF0.031173333413900314
aF0.03972326153826905
aF0.032075446388887395
aF0.04018915144931659
aF0.048409160317737
aF0.08995440890445162
aF0.09578675123370516
aF0.17148412280577816
aF0.2457979855767002
aF0.3742098377096598
aF0.6157977873259828
asS'A1_y2.50_y3.00_val_err'
p103
(lp104
F0.006319469314359026
aF0.005025730926209522
aF0.005928103850614097
aF0.00627341818136056
aF0.008379955550589794
aF0.010436238968270855
aF0.013248451280281811
aF0.015199811521411793
aF0.013110070251391352
aF0.017359220520169947
aF0.018863265076982775
aF0.021100315793466707
aF0.021313411076712606
aF0.02304541012577253
asS'A0_y2.00_y2.50_fit'
p105
(lp106
F0.0
aF0.0
aF0.0004423194005529294
aF-5.2032488613933635e-06
asS'A2_y3.00_y3.50_fit'
p107
(lp108
F0.0
aF0.0
aF0.0003375838301412793
aF-3.834914250543467e-06
asS'A2_y0.80_y1.20_val_err'
p109
(lp110
F0.013291620677099377
aF0.011118161052746543
aF0.00909478891222316
aF0.009726940239479613
aF0.011056996788638711
aF0.011901923805140975
aF0.012989169076621848
aF0.014884204741555817
aF0.013634088566232147
aF0.01753124760197324
aF0.016590516742547044
aF0.028524889405266894
aF0.04516954249138164
aF0.062294539143217385
asS'A0_y0.40_y0.80_val'
p111
(lp112
F-0.004496695212440504
aF-0.001317568669291494
aF0.0015518187841904601
aF0.020287457366822217
aF0.03957003701113071
aF0.03293355369275385
aF0.05426065899884886
aF0.05930018840913503
aF0.09816219034730096
aF0.14261810883901585
aF0.2049968875831408
aF0.31039980251265
aF0.4562107359161099
aF0.7021646831133588
asS'A1_y1.20_y1.60_val_err'
p113
(lp114
F0.007370411259841666
aF0.0057414585498821455
aF0.005794248544240596
aF0.006227991653606313
aF0.007585945156657315
aF0.009613408040510798
aF0.010854523149868298
aF0.01274071716691259
aF0.015033399485063098
aF0.015838913445473703
aF0.017505114598139897
aF0.0170788882921514
aF0.010772619414596549
aF0.011613417810058996
asS'A0_y1.20_y1.60_val_err'
p115
(lp116
F0.008968435496240705
aF0.006246871438036423
aF0.006214768819533815
aF0.007887326660713154
aF0.008542837358669154
aF0.008829123202641547
aF0.012668212395488286
aF0.015779552739539116
aF0.01538698898854077
aF0.02250464348311949
aF0.03231702005880093
aF0.04335518179927736
aF0.059107906593637585
aF0.06844147032525885
asS'A2_y0.40_y0.80_val'
p117
(lp118
F-0.004336500872290806
aF0.003252253620069296
aF0.005621282534216688
aF0.0057004418821881495
aF0.03317988084459972
aF0.03267870752000162
aF0.030774929954933732
aF0.04375507447813332
aF0.04864833899701457
aF0.08767763254040614
aF0.12070132342002221
aF0.24807810463654162
aF0.35871892838150254
aF0.6185195028243987
asS'A3_y1.60_y2.00_val'
p119
(lp120
F0.002344557771239676
aF-0.014271616429778653
aF-0.021651650962127234
aF-0.0334982662405127
aF-0.041959087664794725
aF-0.06072810305807366
aF-0.06966292498231551
aF-0.07764280632823588
aF-0.11334945450524883
aF-0.1244997142588909
aF-0.13349119517726635
aF-0.1470532362558036
aF-0.16672583794603205
aF-0.37163983452300364
asS'A0_y2.00_y2.50_val'
p121
(lp122
F0.005567289366018052
aF0.0017804324200542323
aF0.004002720006620259
aF0.019356456633075596
aF0.03712979611339999
aF0.05058995442343273
aF0.06456091219333086
aF0.08411248744160935
aF0.10830509860741688
aF0.15234197191638932
aF0.2242224816240975
aF0.339794865963556
aF0.45624186785261134
aF0.6892041373001961
asS'A0_y1.20_y1.60_val'
p123
(lp124
F0.0036461033759867404
aF0.0007922412259095919
aF0.010050946818291403
aF0.031054691192279667
aF0.03807617434786999
aF0.04562193440418556
aF0.0572773661545862
aF0.09610408169526645
aF0.11116871952426574
aF0.15594094833428174
aF0.2313455622625973
aF0.32412074620417164
aF0.4737628234837657
aF0.6963207537571255
asS'A1_y3.50_y5.00_val'
p125
(lp126
F0.017670682174469123
aF0.03103853803930476
aF0.05225480510351746
aF0.08532184132283317
aF0.11324104040240544
aF0.14580306644370536
aF0.16760454980621975
aF0.19831872746205348
aF0.22315895733656263
aF0.25948660922206535
aF0.2861285836151401
aF0.2867435508734049
aF0.2796952731400904
aF0.32135629609658534
asS'A0_y2.50_y3.00_fit'
p127
(lp128
F0.0
aF0.0
aF0.0004226511069945083
aF-4.740775144483958e-06
asS'A0_y2.00_y2.50_val_err'
p129
(lp130
F0.008354479845783549
aF0.005453479032935054
aF0.005667290010989718
aF0.0066648220985757465
aF0.007753048497649832
aF0.009134941473900739
aF0.009457814012037942
aF0.014736645360274506
aF0.016062962472354395
aF0.024998626901880414
aF0.030651444560641183
aF0.04571042472083973
aF0.05055622736978475
aF0.06399651273221822
asS'A2_y2.50_y3.00_fit'
p131
(lp132
F0.0
aF0.0
aF0.0002962892552133226
aF-2.9889172731471336e-06
asS'A1_y2.50_y3.00_fit'
p133
(lp134
F0.0
aF0.009996813519094788
aF0.0004304998252346766
aF-2.633725174130822e-05
aF2.984767785696949e-07
asS'A4_y3.00_y3.50_val_err'
p135
(lp136
F0.0862687269508292
aF0.08425178609884086
aF0.08401981772981479
aF0.0873487662030561
aF0.08929149954345152
aF0.09197664143422113
aF0.09796062914532991
aF0.10349410623248857
aF0.10934594769720893
aF0.11876845528390868
aF0.1330966226842699
aF0.14619971944149868
aF0.12221517366241559
aF0.07907023711798469
asS'A2_y3.50_y5.00_fit'
p137
(lp138
F0.0
aF0.0
aF0.00037061619634096155
aF-4.439229186613768e-06
asS'A1_y2.50_y3.00_val'
p139
(lp140
F0.0036321271263490508
aF0.04088909430809923
aF0.05477742073054923
aF0.07787481878050412
aF0.10622127355024608
aF0.13337784379107065
aF0.15567987977166034
aF0.19132286372174515
aF0.18808643103265424
aF0.22036617970904906
aF0.2208570582218467
aF0.1909930817360581
aF0.14942283013988744
aF0.14906045377094046
asS'A1_y0.40_y0.80_val'
p141
(lp142
F0.02131371780466218
aF0.0116009748401081
aF0.03317610690476976
aF0.04652514137481472
aF0.05627193352605033
aF0.07163468158139069
aF0.08026693543215375
aF0.08762665238849464
aF0.10945455429610976
aF0.11012946810602549
aF0.10958066979608726
aF0.0844190801212568
aF0.05436236601199882
aF0.030595727656740325
asS'A2_y1.20_y1.60_val_err'
p143
(lp144
F0.013648798586519016
aF0.008981919627335877
aF0.011315642547800792
aF0.010051931948124515
aF0.010915002103751232
aF0.011694421998015748
aF0.012589749657506361
aF0.014140720216934806
aF0.013663733020042746
aF0.014566228104935786
aF0.019685708351358445
aF0.031312292751738476
aF0.044659329332217376
aF0.06250744384406672
asS'A3_y1.20_y1.60_fit'
p145
(lp146
F0.0
aF-0.0015539641310302471
aF-0.00020295238862096804
aF7.926986400970891e-06
aF-8.267346028000023e-08
asS'A2_y1.60_y2.00_val'
p147
(lp148
F0.012390223538441814
aF-0.0057773117701675975
aF0.010000397491362292
aF0.022781721667218386
aF0.04411190525240945
aF0.04563097011888164
aF0.051453425679090996
aF0.05955401071970371
aF0.0904620910843688
aF0.12122083849243545
aF0.19079216886463846
aF0.25155487650526875
aF0.3625067841040428
aF0.6010363724918446
asS'A2_y3.00_y3.50_val'
p149
(lp150
F0.010967905239689085
aF0.025912758073488636
aF0.012886943676957075
aF0.019239743350515922
aF0.028818272816910736
aF0.0490165278590941
aF0.03516038298749042
aF0.05810046756468207
aF0.07573063822273196
aF0.1414488194488422
aF0.16640095627457638
aF0.258853036276434
aF0.3684331582891127
aF0.558725123727017
asS'A3_y2.00_y2.50_fit'
p151
(lp152
F0.0
aF-0.0065528950336135455
aF-0.0003862256400941205
aF1.7962949340947706e-05
aF-1.9939073588165214e-07
asS'A2_y1.60_y2.00_fit'
p153
(lp154
F0.0
aF0.0
aF0.0003622109437354474
aF-4.398846907173644e-06
asS'A3_y2.50_y3.00_val'
p155
(lp156
F-0.015848610285050642
aF-0.0372975644538229
aF-0.055416572136715955
aF-0.08625810089829117
aF-0.11194600340544401
aF-0.13927761723375434
aF-0.17177158318852556
aF-0.2094465795059869
aF-0.24054628268142506
aF-0.2842303691601783
aF-0.3253520950024259
aF-0.3570124098687805
aF-0.4446531328657118
aF-0.7638599397287965
asS'A2_y2.00_y2.50_val'
p157
(lp158
F-0.009249375143147434
aF-0.005539638995993123
aF0.027886900504781497
aF0.006140765607994196
aF0.0273149838686059
aF0.05472876482700713
aF0.05992784239807655
aF0.047271655850741764
aF0.08259741329609128
aF0.11425994971337154
aF0.1712204608152496
aF0.24926787913110837
aF0.36981178853970176
aF0.5556156485809784
asS'A3_y2.00_y2.50_val'
p159
(lp160
F-0.00877010791383146
aF-0.02203964055244947
aF-0.03953201517842547
aF-0.05945997417520051
aF-0.0809303382579727
aF-0.09605689781418887
aF-0.11695054628228627
aF-0.13495163033281904
aF-0.15818614710320558
aF-0.18493752468900485
aF-0.2157753911667119
aF-0.23400496189733375
aF-0.2937682091496567
aF-0.5367152121993733
asS'A1_y0.40_y0.80_fit'
p161
(lp162
F0.0
aF0.005241736975316755
aF0.00025931731015859175
aF-1.6123035661851992e-05
aF1.8550617831575644e-07
asS'A2_y3.50_y5.00_val_err'
p163
(lp164
F0.009241638895898772
aF0.0067098187996193276
aF0.007386496557195625
aF0.009607123097487031
aF0.009244250607328792
aF0.010670672059499235
aF0.011852464996002324
aF0.014481432645183381
aF0.01612353645422153
aF0.022358983980265788
aF0.023576112980801766
aF0.028680819232929304
aF0.04832639581539583
aF0.0602149721115427
asS'A4_y0.40_y0.80_val_err'
p165
(lp166
F0.009748674772395223
aF0.008512773540634785
aF0.008950601005043104
aF0.008751778878622805
aF0.008723072226346565
aF0.008787806972415985
aF0.011827519936317156
aF0.010471962546191966
aF0.009394376103909498
aF0.012154042975107394
aF0.0097808535938591
aF0.011751598450705596
aF0.021951157162465106
aF0.012563378426760889
asS'A3_y1.20_y1.60_val_err'
p167
(lp168
F0.006109755221867313
aF0.0045082233340892775
aF0.0041983042944316856
aF0.004663878573192712
aF0.005197525662103408
aF0.006649986792920964
aF0.006266261870994538
aF0.007078370046472668
aF0.007139391045794425
aF0.009569811210382787
aF0.00848463012924639
aF0.010680740035623647
aF0.015869679369505243
aF0.021652877092239432
asS'fit_range'
p169
(lp170
F0.0
aF50.0
asS'A1_y0.80_y1.20_val_err'
p171
(lp172
F0.007367867613995061
aF0.005592116068186998
aF0.005539572385831582
aF0.0062003297491766115
aF0.007558360035323355
aF0.00803902177862319
aF0.009950087506967225
aF0.010066280827895633
aF0.011404618794188118
aF0.013693078391480361
aF0.016448448303557295
aF0.013775554294188449
aF0.011462709320376028
aF0.010217042375769668
asS'A4_y1.60_y2.00_val'
p173
(lp174
F-0.6092423474467344
aF-0.5862514927990162
aF-0.5740826737736906
aF-0.5571298331992557
aF-0.5567874964318613
aF-0.5469357781571773
aF-0.5470462324111429
aF-0.5359203473710602
aF-0.5372555768304146
aF-0.5317701425897995
aF-0.5058053908131216
aF-0.4844415403953663
aF-0.4302234755852105
aF-0.3388535706130083
asS'A4_y0.80_y1.20_val'
p175
(lp176
F-0.2713980402083301
aF-0.2810367363523233
aF-0.26350115426285975
aF-0.25046771739336243
aF-0.24971933155816797
aF-0.24281941047505498
aF-0.2389430359894591
aF-0.2131136108939191
aF-0.2266220560305559
aF-0.236192536884858
aF-0.23731183194977737
aF-0.21245451473493246
aF-0.20450442264728047
aF-0.16439079106771123
asS'A3_y3.50_y5.00_val'
p177
(lp178
F-0.025153950554597262
aF-0.06489787982539537
aF-0.10894584208199241
aF-0.16037817158963383
aF-0.22459364141797875
aF-0.27397929397793747
aF-0.32122484810780005
aF-0.3840418579164155
aF-0.45501012051225215
aF-0.5559555016419504
aF-0.6453804734810646
aF-0.7353354797928364
aF-0.8571944086633283
aF-1.2040863520330765
asS'A0_y0.00_y0.40_val'
p179
(lp180
F-0.015512574521770807
aF0.0005358395939515234
aF0.004469752903683622
aF0.0020832504429512803
aF0.016959446656471373
aF0.029334545788072718
aF0.043788540446410014
aF0.052870812711395744
aF0.08765585320196491
aF0.12465580433469202
aF0.19661703703291308
aF0.30646381606653067
aF0.4531907264882129
aF0.6965992441658996
asS'A2_y2.00_y2.50_fit'
p181
(lp182
F0.0
aF0.0
aF0.00033024318420274076
aF-3.723649351370219e-06
asS'A0_y3.00_y3.50_val'
p183
(lp184
F-0.0017374539711085021
aF-0.00827314073043156
aF0.010366631398295896
aF0.010236385707697452
aF0.02945449356805327
aF0.04575045231312553
aF0.06573526893096418
aF0.07329621594022866
aF0.1013622498007199
aF0.1505789804600527
aF0.2198777191837404
aF0.3304884419122747
aF0.4363401342375694
aF0.6588185925226401
asS'A3_y0.80_y1.20_fit'
p185
(lp186
F0.0
aF0.0016225881209803172
aF-0.00034143957282135526
aF1.0880534860139581e-05
aF-1.0236691668132526e-07
asS'A2_y2.50_y3.00_val_err'
p187
(lp188
F0.011847389763018046
aF0.00883177400245462
aF0.008192511874431298
aF0.008939549380766607
aF0.009582810251433196
aF0.010488920467265852
aF0.012934604228461214
aF0.015029232459344923
aF0.013468750486695326
aF0.013172169079521746
aF0.018987408284904344
aF0.02932568985086737
aF0.047723310291142185
aF0.07306965141263665
asS'A1_y3.00_y3.50_val_err'
p189
(lp190
F0.006721227904060494
aF0.0048980955870850515
aF0.005633064948179924
aF0.006632231436477596
aF0.009901518499502925
aF0.01191904985432061
aF0.013977457880777745
aF0.018023899923110247
aF0.01756633605156092
aF0.02000437114608079
aF0.022761016457385652
aF0.02447514350335477
aF0.030085580397380827
aF0.02662379478824426
asS'A4_y2.50_y3.00_val'
p191
(lp192
F-1.1655042273294791
aF-1.1489049745309976
aF-1.1305789156627846
aF-1.1145308568882408
aF-1.1086158824452812
aF-1.095659607392678
aF-1.0824662482620282
aF-1.083945411533703
aF-1.0698288525554012
aF-1.0552667691164093
aF-1.0140965642971322
aF-0.9665688572778665
aF-0.8601586177869417
aF-0.658489945928047
asS'A0_y0.80_y1.20_val'
p193
(lp194
F-0.006638527635534629
aF0.005528200271045121
aF-0.002731342871455444
aF0.02369664003450458
aF0.03558279324985024
aF0.04101854652635023
aF0.05450278154515948
aF0.07942238848983241
aF0.10664413683436404
aF0.15161247421095492
aF0.23926893286451129
aF0.31640820281280596
aF0.4632482618481532
aF0.7128791210326754
asS'A4_y0.80_y1.20_val_err'
p195
(lp196
F0.01478219159885045
aF0.013374527331134993
aF0.012623792843621891
aF0.012400270534324007
aF0.01368555233654056
aF0.014477490466376626
aF0.013805524282136224
aF0.013965055545677932
aF0.01638590207465652
aF0.020016679146684514
aF0.023262045353831726
aF0.02258309187965858
aF0.02676067083186673
aF0.016228247336430288
asS'A4_y1.60_y2.00_val_err'
p197
(lp198
F0.029357350965021806
aF0.027567958236128103
aF0.027304117385911056
aF0.02759041314729334
aF0.029367358859993125
aF0.031246842242418766
aF0.0324116186045382
aF0.034386713837389414
aF0.037658874822880606
aF0.04220543087625978
aF0.049408651861935604
aF0.05598949529155521
aF0.04822664854575314
aF0.03771048712794905
asS'A4_y3.00_y3.50_fit'
p199
(lp200
F-1.5073585733926567
aF0.01215942118007321
aF-0.0007624893169069953
aF2.8095676507852133e-05
aF-2.9101996656413247e-07
asS'A2_y1.20_y1.60_fit'
p201
(lp202
F0.0
aF0.0
aF0.00030203382094576986
aF-3.1053949358234565e-06
asS'A4_y3.50_y5.00_fit'
p203
(lp204
F-1.8833713521792896
aF0.005785137981056843
aF-6.649326661898464e-05
aF1.069832283727098e-05
aF-1.5177361400998246e-07
asS'A2_y0.80_y1.20_fit'
p205
(lp206
F0.0
aF0.0
aF0.0002483495393648394
aF-2.0292423205872786e-06
asS'A3_y0.40_y0.80_val_err'
p207
(lp208
F0.006294185877759942
aF0.004145262756960674
aF0.0042980080856517165
aF0.004665111310693175
aF0.004819362730948622
aF0.005227755400692643
aF0.006219539213688648
aF0.006254015572858872
aF0.005147690225490091
aF0.007060074141447638
aF0.0065130214961748355
aF0.008059446761847595
aF0.014227866654803903
aF0.012963980017138685
asS'A0_y0.00_y0.40_val_err'
p209
(lp210
F0.009815249672833436
aF0.006268749338966734
aF0.006510057171727412
aF0.006976276675567345
aF0.008568483090540516
aF0.009282781304291016
aF0.011941458404979434
aF0.012224837288295562
aF0.015681960858224417
aF0.023301592735825053
aF0.03266713842291243
aF0.04613957523225532
aF0.05451371852275019
aF0.06327752274552532
asS'A4_y3.00_y3.50_val'
p211
(lp212
F-1.4970073453425867
aF-1.4779642024856312
aF-1.45982294466709
aF-1.4484426810415738
aF-1.440771664138037
aF-1.4327495150359888
aF-1.4315643206470334
aF-1.4147384317871994
aF-1.4053416981336917
aF-1.3704273238350413
aF-1.3277537102037469
aF-1.2374724911613855
aF-1.1123338008047827
aF-0.8754503710891107
asS'A1_y0.00_y0.40_val'
p213
(lp214
F0.0064472993909428684
aF0.014284445971681204
aF0.009388332500866821
aF0.016096655774846057
aF0.027634895459250085
aF0.030935483150077003
aF0.03242105546711728
aF0.0310340003499691
aF0.03944222243862147
aF0.03993189676394371
aF0.045685940846511126
aF0.021560954849142062
aF0.019472203341613932
aF0.0003777422751189865
asS'A1_y0.80_y1.20_val'
p215
(lp216
F0.0102584382137886
aF0.03477367977310301
aF0.0438668697093743
aF0.060925314376015914
aF0.08930125448835755
aF0.09699010540258775
aF0.10793723063908131
aF0.12295030783951492
aF0.14923821559388692
aF0.15944714015036832
aF0.16259153007436442
aF0.11068403816261434
aF0.07125491506289582
aF0.023682227182717216
asS'A1_y1.60_y2.00_val'
p217
(lp218
F0.009305531713362406
aF0.03760853750041395
aF0.06238633634112785
aF0.08414393765302818
aF0.111448041381894
aF0.12950165534811076
aF0.15478326859935065
aF0.1622416378713452
aF0.18491929888515143
aF0.19764772358018248
aF0.19657378814548832
aF0.15398687352655183
aF0.10917365596410042
aF0.07399796500040069
asS'A0_y0.80_y1.20_fit'
p219
(lp220
F0.0
aF0.0
aF0.00041130431466811397
aF-4.504880097901522e-06
asS'A3_y0.00_y0.40_val_err'
p221
(lp222
F0.006071418887624437
aF0.004861107254777757
aF0.004199708262540669
aF0.004580403943819899
aF0.0049052612016156445
aF0.0054425337792593995
aF0.0059679987284982795
aF0.0067476665559485505
aF0.005006753648668441
aF0.006018410583748684
aF0.005235083475994405
aF0.008830261519166271
aF0.008526928816172785
aF0.010973151635723643
asS'A4_y1.20_y1.60_val'
p223
(lp224
F-0.4261545799761183
aF-0.4170924282349198
aF-0.4008783628893714
aF-0.3882977155589031
aF-0.37889247239401336
aF-0.3730051937394184
aF-0.374254461536962
aF-0.37618501029075563
aF-0.36764505208446213
aF-0.36950232801442195
aF-0.3405564799286178
aF-0.3274180555430174
aF-0.30538298336508357
aF-0.24057074912348275
asS'A1_y2.00_y2.50_fit'
p225
(lp226
F0.0
aF0.008772109771120085
aF0.0005985310839578956
aF-3.308269098362257e-05
aF3.738942872986224e-07
asS'A3_y1.60_y2.00_fit'
p227
(lp228
F0.0
aF-0.0027433583889429417
aF-0.0003833170485303916
aF1.5211090337598771e-05
aF-1.5556203398951465e-07
asS'A3_y3.00_y3.50_val'
p229
(lp230
F-0.016096731364786385
aF-0.04644581627018415
aF-0.08319872888710782
aF-0.11321024325088361
aF-0.15793549437073828
aF-0.19647123870613165
aF-0.23037242183265771
aF-0.27895888359567006
aF-0.3289606867522986
aF-0.3788944992500576
aF-0.45112812448136846
aF-0.5015782468559736
aF-0.6429760305964219
aF-1.0157550677136304
asS'A1_y3.50_y5.00_fit'
p231
(lp232
F0.0
aF0.008687808078478618
aF0.0006710118107051896
aF-3.107830319698827e-05
aF3.284546035662399e-07
asS'A0_y2.50_y3.00_val'
p233
(lp234
F-0.008900486256576317
aF0.000997619518737587
aF0.008835692761908404
aF0.007378656309170271
aF0.03493727385255792
aF0.040563921988180894
aF0.0665445740747347
aF0.08260259239899848
aF0.11198855113700917
aF0.15389292176419428
aF0.2437418263463444
aF0.3234946441358853
aF0.4574927941319501
aF0.6575234732647715
asS'A3_y1.60_y2.00_val_err'
p235
(lp236
F0.006637341943992269
aF0.004183382497774588
aF0.004228062262104764
aF0.005310562231914938
aF0.00592894464336944
aF0.006325581341542255
aF0.007484107340376467
aF0.00780555010845261
aF0.010779105170413429
aF0.011252731100249557
aF0.013649581358948133
aF0.018654735745569986
aF0.02003870743481476
aF0.03624303670176875
asS'A1_y0.00_y0.40_fit'
p237
(lp238
F0.0
aF0.002491591033148194
aF6.74536920653862e-05
aF-5.946075156266681e-06
aF7.504194360653522e-08
asS'A4_y2.00_y2.50_val_err'
p239
(lp240
F0.04089178791705458
aF0.040637115457579503
aF0.040359378610060885
aF0.040503257430531125
aF0.042527535442377966
aF0.043674139055635754
aF0.04792279471610472
aF0.05201269944667049
aF0.05768785704971888
aF0.059666813835003545
aF0.06969422965653349
aF0.0831608331465986
aF0.06685853032275149
aF0.04296415249683194
asS'A0_y3.50_y5.00_val'
p241
(lp242
F-0.007996485499395078
aF0.008226310640663191
aF0.009551551824929831
aF0.0070658453364354935
aF0.027175882077586422
aF0.05408113980691434
aF0.056442099820623814
aF0.09227711630313437
aF0.10577452216636042
aF0.16495171765767247
aF0.21297124940527656
aF0.2979863082710737
aF0.41582286664465
aF0.6157446267674964
asS'A2_y2.50_y3.00_val'
p243
(lp244
F-0.005974057993872325
aF-7.83752672854027e-05
aF0.02342489114922096
aF0.01971505276981388
aF0.0294632928195063
aF0.02197673370418975
aF0.023931944803839103
aF0.04910335096321641
aF0.09379828316633652
aF0.10918094780696096
aF0.16299808242616076
aF0.25453231264332177
aF0.3618410296821274
aF0.537693775510807
asS'A2_y1.60_y2.00_val_err'
p245
(lp246
F0.013138223871963983
aF0.00905867162778512
aF0.010746126016436444
aF0.010899010485308317
aF0.011576382943857402
aF0.01394147998595049
aF0.013767654025295213
aF0.016140945298965
aF0.013411192083686792
aF0.018897603836730996
aF0.02553785620413604
aF0.030613593289186905
aF0.03501559444152178
aF0.05695525181124689
asS'A1_y2.00_y2.50_val_err'
p247
(lp248
F0.007585393411857973
aF0.004669904860398701
aF0.006193350451032566
aF0.007043962400857895
aF0.007908346197958554
aF0.00941486886359219
aF0.012934395160630474
aF0.017077866272672066
aF0.016983581852108093
aF0.01666939333956899
aF0.018708846861713466
aF0.022597224968626015
aF0.021903003274716965
aF0.01438382679171678
asS'A0_y2.50_y3.00_val_err'
p249
(lp250
F0.00911699524575162
aF0.005358078631617862
aF0.005848759303492548
aF0.006246573215117929
aF0.00787571130553818
aF0.008641806840385432
aF0.010892179903831586
aF0.012184184232847261
aF0.021205739345682265
aF0.021517634082523576
aF0.03343160068301692
aF0.04572873231962602
aF0.04973209163171792
aF0.06476911681402747
asS'A2_y0.40_y0.80_fit'
p251
(lp252
F0.0
aF0.0
aF0.00020063629175899253
aF-1.1124342645523226e-06
asS'A3_y0.80_y1.20_val_err'
p253
(lp254
F0.006142406786221328
aF0.004291722589449889
aF0.004652471682708877
aF0.004872773268615986
aF0.0055798461765259
aF0.00526687848965917
aF0.0059158743979000365
aF0.006348525662310677
aF0.00552457536031953
aF0.006883485996189725
aF0.006993795412983268
aF0.00976793614576791
aF0.010411033992286402
aF0.017818339197240136
asS'A0_y3.50_y5.00_val_err'
p255
(lp256
F0.0068279178725687345
aF0.004670840226689891
aF0.004806272698670798
aF0.005673671173839466
aF0.010534045250523257
aF0.010170462490221391
aF0.010288605663027603
aF0.014832591011548954
aF0.014984267016807171
aF0.020048698870541514
aF0.02286815986839118
aF0.0347967263245841
aF0.0503193508100817
aF0.0586978822144703
asS'A3_y2.50_y3.00_fit'
p257
(lp258
F0.0
aF-0.009806350985986076
aF-0.0005094691658469059
aF2.2332131501817426e-05
aF-2.3503116386935898e-07
asS'A1_y1.20_y1.60_val'
p259
(lp260
F0.011776344918496908
aF0.03692791397749934
aF0.05626351634935921
aF0.06498165107629131
aF0.10061719541335794
aF0.11791179587100456
aF0.1440118699813135
aF0.15326969936947313
aF0.17772076525008654
aF0.18206394559020553
aF0.19689080097296718
aF0.14742533099043395
aF0.08523528635786373
aF0.060644759907112655
asS'A0_y0.00_y0.40_fit'
p261
(lp262
F0.0
aF0.0
aF0.00027797866063503096
aF-1.733702291040716e-06
asS'A4_y0.00_y0.40_val'
p263
(lp264
F-0.04684166233949861
aF-0.0531132539993776
aF-0.041110903500871675
aF-0.04404524422211612
aF-0.03549297205472224
aF-0.037351688020667836
aF-0.044771256594433
aF-0.05545542555062503
aF-0.036354119713693824
aF-0.04304995528663645
aF-0.03960986288690862
aF-0.02585847027991854
aF-0.02521201639799088
aF-0.025210606271643177
asS'A4_y0.80_y1.20_fit'
p265
(lp266
F-0.28701443260355075
aF0.005825530567718368
aF-0.0001479212448957934
aF1.3785034359609007e-07
aF2.330101256349049e-08
asS'A0_y3.00_y3.50_fit'
p267
(lp268
F0.0
aF0.0
aF0.0004039814634597752
aF-4.518591151088597e-06
asS'A0_y3.50_y5.00_fit'
p269
(lp270
F0.0
aF0.0
aF0.00042403893219044794
aF-5.178691079149524e-06
asS'A3_y0.40_y0.80_fit'
p271
(lp272
F0.0
aF0.00210318977222404
aF-0.00016801765817531233
aF3.1099294249616353e-06
aF-1.5750092072271956e-08
as.