(dp0
S'A4_y1.20_y1.40_val'
p1
(lp2
F0.3245619721970797
aF0.31131598412665523
aF0.3029241376953112
aF0.30520811734596054
aF0.29350706875659044
aF0.2731364256440274
aF0.2700532207727366
aF0.2818489729626862
aF0.2859775058350276
aF0.2741783804458672
aF0.28817006783250176
aF0.2589329728853956
aF0.2565760025653838
aF0.2661651741296214
aF0.26736408554622143
aF0.25941214424767384
aF0.1889020502674163
aF0.2327805636880307
aF0.2278820155909988
aF0.1430718046679314
asS'A0_y1.20_y1.40_val'
p3
(lp4
F-0.027752667909967783
aF-0.013640163717360081
aF-0.0012186997481671259
aF0.005787727256147273
aF0.02086645229394717
aF0.02236059209100184
aF0.024459332096295878
aF0.053120823300142075
aF0.06435800945195327
aF0.1609979928992967
aF0.14341461302536157
aF0.2077864149753769
aF0.25691991787533325
aF0.31079742542003375
aF0.3614421387126042
aF0.4252564465278066
aF0.6256394487480187
aF0.6597314809309898
aF0.810319890931478
aF0.8757563858557122
asS'A4_y0.60_y0.80_val_err'
p5
(lp6
F0.013774881414351847
aF0.009326703932106977
aF0.009174868817347052
aF0.009740376054859803
aF0.010393560453008323
aF0.011102886298634347
aF0.011850220489095967
aF0.01265309907651338
aF0.013674069507991582
aF0.014616215150927361
aF0.011449782050597317
aF0.012988438390468204
aF0.0146147701336056
aF0.016255865954216263
aF0.01820632104162559
aF0.01076636614173997
aF0.016830316632273662
aF0.02495634476044656
aF0.02628837790367462
aF0.05275651354284505
asS'A4_y4.50_y5.00_fit'
p7
(lp8
F1.7559564041520612
aF-0.010506803491117524
asS'A4_y1.80_y2.00_val'
p9
(lp10
F0.5671268284126889
aF0.5510584600481738
aF0.5272671873791285
aF0.5218788838270586
aF0.5017224882289926
aF0.5158878691118192
aF0.5100557499811517
aF0.5329860762496806
aF0.5169459831622523
aF0.4976534744991083
aF0.49386332100693037
aF0.47395892277622964
aF0.5026182547144596
aF0.4657340500616525
aF0.49112341341918986
aF0.42188341418586395
aF0.37211227090800814
aF0.34679942582567097
aF0.2744519117921633
aF0.3324426536254599
asS'A5_y1.20_y1.40_val'
p11
(lp12
F-0.01893541519834441
aF0.001287903838147693
aF0.008144439659706241
aF-0.012772368043347889
aF0.013982276262672885
aF0.004953208607261201
aF-0.0019095186565213059
aF0.014405827149864667
aF0.0050324211780733725
aF-0.028827801251043863
aF-0.017056461516610014
aF-0.012854825725984113
aF-0.0022280426394524835
aF0.012784659543701856
aF0.0030486086684569542
aF0.0003565488143824223
aF-0.03837823907521172
aF0.011417281579881243
aF0.0019033923270601004
aF0.043606846666406046
asS'A4_y1.40_y1.60_val_err'
p13
(lp14
F0.014161447826888775
aF0.009569702926531734
aF0.009420566981878785
aF0.009997177756852585
aF0.010729927214888961
aF0.01152840181301696
aF0.012309341678419638
aF0.01319197308146177
aF0.014214251040561532
aF0.015224842573182313
aF0.011949443081064746
aF0.01353464166249476
aF0.01528918074109319
aF0.017132774729107847
aF0.018985286909365046
aF0.011327948143893332
aF0.01761210818264489
aF0.026112412645432494
aF0.02772915945630613
aF0.056003229851153226
asS'A3_y4.00_y4.50_fit'
p15
(lp16
F0.0
aF0.022924941951552424
aF-0.0005137695045964365
aF7.44907335152451e-06
asS'A0_y1.80_y2.00_val_err'
p17
(lp18
F0.017278375278341657
aF0.011822884049891909
aF0.01169604420901327
aF0.012498342131156399
aF0.013351687349701371
aF0.014341964047316396
aF0.015353745068620125
aF0.016521840957537455
aF0.01783733822275069
aF0.01923440979749457
aF0.015297925083392613
aF0.017472808442321203
aF0.019851696073132172
aF0.022422755982897172
aF0.025070707237834704
aF0.01519492124468128
aF0.024549993764568498
aF0.03748728659119957
aF0.04206635156168954
aF0.08519067732035888
asS'A2_y0.60_y0.80_val_err'
p19
(lp20
F0.026033983377279753
aF0.01759960850637345
aF0.017296936272015256
aF0.018306637482620566
aF0.019725391897258075
aF0.021123931028914016
aF0.022548470477125278
aF0.02437898667909581
aF0.026310731069057503
aF0.0284262999652892
aF0.02246641584408583
aF0.02602446697300956
aF0.02960837818522199
aF0.03381523936900398
aF0.03779461064672984
aF0.022985926188503234
aF0.037250254450984954
aF0.05607685181388588
aF0.06118412237795704
aF0.12292551543685656
asS'A2_y1.80_y2.00_fit'
p21
(lp22
F0.0
aF0.00046226487626430113
aF0.0005108716839661593
aF-7.1120402846343886e-06
asS'A5_y1.80_y2.00_val_err'
p23
(lp24
F0.013218512580629107
aF0.00907988550576671
aF0.008953222246959693
aF0.009547222073569622
aF0.010286505576568926
aF0.01104851530411943
aF0.011887426574815682
aF0.012802827266031214
aF0.013703110731426436
aF0.01501095106206626
aF0.0118866240898287
aF0.013713827630677935
aF0.015735961502745102
aF0.01766365507367298
aF0.02008384164808095
aF0.012221485549270668
aF0.020317788029730204
aF0.030525020103854848
aF0.03513468556073841
aF0.07032709738142441
asS'A3_y0.00_y0.20_val'
p25
(lp26
F-0.013049701989185649
aF-0.03191078335474818
aF-0.025731418652953322
aF-0.03865852525581803
aF-0.04494810473510989
aF-0.029331853008016332
aF-0.051509310246468674
aF-0.03536404522596986
aF-0.055531236676134375
aF-0.058305633997872836
aF-0.06069403549513002
aF-0.047204675022549755
aF-0.0735493889382585
aF-0.0541758612096411
aF-0.036687532034520354
aF-0.0027569182481557535
aF0.04825031026769804
aF0.08767705908608096
aF0.07199377210099628
aF0.13575724082517232
asS'A5_y3.00_y3.50_val_err'
p27
(lp28
F0.009522001939793127
aF0.006623221902334559
aF0.006711289392788019
aF0.007217101053794959
aF0.007868517603379206
aF0.008521890342981099
aF0.009269618034976675
aF0.009973568972766694
aF0.01088204082024028
aF0.01205123498803137
aF0.009632400896180995
aF0.01134434498375328
aF0.013113654426174631
aF0.0152267301433998
aF0.01765672379178393
aF0.011152773842795293
aF0.02040532029515843
aF0.034581976300527596
aF0.04473632970046501
aF0.12384537315952614
asS'A2_y1.00_y1.20_val_err'
p29
(lp30
F0.025954314155942907
aF0.017690004164516722
aF0.017444511655596916
aF0.018540934483786874
aF0.01988806228791416
aF0.021265182834661514
aF0.02284480354297054
aF0.024763542878018126
aF0.026517883395806824
aF0.028873611556484827
aF0.022866451463107864
aF0.026587843815532156
aF0.030107808227231112
aF0.034446608013730826
aF0.0384352736455799
aF0.02332690141436706
aF0.037917378423179805
aF0.057824168671238046
aF0.06353548465895784
aF0.12852928449083886
asS'A7_y3.50_y4.00_fit'
p31
(lp32
F0.0
asS'A1_y0.40_y0.60_val_err'
p33
(lp34
F0.014503896890865628
aF0.009805650670226072
aF0.009673424594851524
aF0.010206397059555334
aF0.010957112667747912
aF0.011703921003250272
aF0.01260519809428843
aF0.013526912232835192
aF0.014551161229416612
aF0.015625052547430792
aF0.012375471962583096
aF0.01411387892040423
aF0.01587710489227842
aF0.01799352579651157
aF0.01992730742457993
aF0.011959672778897966
aF0.01919241999559427
aF0.02825395798907859
aF0.030787638462310266
aF0.06296539454109475
asS'A7_y1.60_y1.80_val'
p35
(lp36
F-0.002743364918404454
aF0.005047344498161404
aF0.015499419992110137
aF-0.004989412417124162
aF0.011525601992142052
aF-0.007074257831696631
aF0.009273825402275124
aF-0.013938584999146422
aF0.002012795249557014
aF0.008956627491856429
aF0.0026357094850967817
aF-0.012132649568199632
aF0.01463069893540838
aF0.022840124396747423
aF0.03310345167935207
aF0.020444507111026758
aF0.009767691564550015
aF-0.004228088119535923
aF-0.02111699651977792
aF0.06146306547163363
asS'A0_y4.50_y5.00_val'
p37
(lp38
F0.08063982614125612
aF0.0536646905745667
aF0.05590123983778031
aF0.04213332776106938
aF-0.055637596194832724
aF0.11719920848965783
aF0.06846148943548902
aF0.13531648537041976
aF0.170190636259662
aF-0.009416242804551713
aF0.32638617254737345
aF0.27958397297753435
aF0.45823986764097596
aF0.2831170815834757
aF0.5006131067717603
aF0.4423271957501217
aF0.22731838038439897
aF0.4089898144037158
aF0.0
aF0.0
asS'A5_y3.00_y3.50_val'
p39
(lp40
F-0.002187272942024916
aF0.0083634818060924
aF-9.658698939165849e-05
aF-0.006069228014145021
aF0.0006108735934021024
aF-0.0049963694667122475
aF-0.002934855890255681
aF-0.006616133434716042
aF-0.002344515398065087
aF0.008490717167194434
aF0.012865611792344779
aF-0.015058374892580658
aF-0.0010043516383818197
aF-0.009555014330270485
aF-0.020533375151197963
aF-0.004550438941596265
aF-0.01791118727663861
aF-0.007369070163409029
aF-0.06728813900293862
aF-0.029150513023166992
asS'A7_y3.50_y4.00_val_err'
p41
(lp42
F0.010500717572516133
aF0.007374799816336325
aF0.007558031397054294
aF0.008272667053818716
aF0.009024444470103227
aF0.00976890847356841
aF0.0107945319456115
aF0.011731637916012056
aF0.012958888580805895
aF0.014123271577464574
aF0.011633285282257726
aF0.013844761063990286
aF0.016238399784317854
aF0.019060431826653887
aF0.0223194361775434
aF0.014686493292315502
aF0.02891872382356835
aF0.05320069613210687
aF0.08232262989084009
aF0.2787958263974398
asS'A4_y4.00_y4.50_val_err'
p43
(lp44
F0.022353306107127494
aF0.016082746620357607
aF0.016813298601102315
aF0.018765869613632694
aF0.020619745788617395
aF0.02270130373443808
aF0.024779741307545372
aF0.027960342479232736
aF0.03037695478967419
aF0.034205081496674686
aF0.028144077540309516
aF0.03442205488394418
aF0.03951626274756645
aF0.0474225917998051
aF0.057743119345216996
aF0.03932241095718481
aF0.09022184733863452
aF0.1978867524642442
aF0.3178598904335848
aF0.0
asS'A4_y3.50_y4.00_val_err'
p45
(lp46
F0.014199103340182862
aF0.009914744195173308
aF0.010197806502283895
aF0.011099032420068674
aF0.012015270622411431
aF0.013143571610512056
aF0.014275249311419526
aF0.015566913023667648
aF0.01703445849743209
aF0.018653867830820497
aF0.01516168749799923
aF0.017711341941824145
aF0.020712344889715815
aF0.023772678195618117
aF0.027753563566887008
aF0.01757276513620695
aF0.0325443948159884
aF0.060079657208793456
aF0.08584805753356195
aF0.32619623028473765
asS'A1_y1.20_y1.40_val'
p47
(lp48
F0.027240679552329936
aF0.02979950434757973
aF0.06759471098720274
aF0.06665524059896435
aF0.09030111495215508
aF0.09668313321630002
aF0.12752558265314148
aF0.12143183867574973
aF0.14555607109113322
aF0.1533610853918707
aF0.12302447335480873
aF0.1126376627300265
aF0.1176119339301016
aF0.11578269119578909
aF0.07004245788944481
aF0.06742513318662532
aF0.07568849782248296
aF0.06159010951594158
aF0.05669527899502879
aF0.051949787766494226
asS'A0_y0.20_y0.40_fit'
p49
(lp50
F0.0
aF-0.005313708489804891
aF0.0007066078768974346
aF-8.394399820372612e-06
asS'A7_y2.50_y3.00_val'
p51
(lp52
F0.007699634172703821
aF-0.0022555444937730285
aF0.005612904500243305
aF-0.0051959288653672525
aF-0.0011997602905613788
aF-0.012852032076026742
aF-0.0037504297275160266
aF-0.006595115372927201
aF0.006561371000556995
aF0.0057507405764103394
aF0.004735122414482606
aF-0.013494389877158623
aF-0.011235182882310128
aF0.005583665765670052
aF-0.008477055973998716
aF-0.0073231773961485655
aF0.011632496641898067
aF0.0017937171276526825
aF0.019566795439790573
aF0.047610618986493
asS'A7_y1.80_y2.00_val_err'
p53
(lp54
F0.012142563048989833
aF0.008278369752793856
aF0.008204286637319553
aF0.008687957689619845
aF0.009411015540916064
aF0.01006141137367015
aF0.010849550729735728
aF0.011639030587341887
aF0.01253741230283061
aF0.013586860163660177
aF0.01074769307277994
aF0.012273106700333937
aF0.01399642014028847
aF0.015709516893248596
aF0.01771060300145727
aF0.01072427689110289
aF0.017494714909408765
aF0.026136105160240185
aF0.02945864488616247
aF0.058224021051507195
asS'A0_y1.60_y1.80_val_err'
p55
(lp56
F0.017208169456301554
aF0.011695803324942846
aF0.011589849067938562
aF0.012353350640424605
aF0.013263966559512369
aF0.014222724155626223
aF0.015261096644932555
aF0.016372698832984707
aF0.017531500478072955
aF0.019109163721133304
aF0.01501477667622907
aF0.0172100078164679
aF0.019486717414887927
aF0.02203210164794481
aF0.024632966045809356
aF0.014861576691935873
aF0.02413417692142975
aF0.0362550625234456
aF0.04003624649841634
aF0.08133865889971917
asS'A4_y1.40_y1.60_val'
p57
(lp58
F0.4274150376772284
aF0.3982240308663108
aF0.37984528298448084
aF0.3747334390165214
aF0.3553585338910788
aF0.36072841191450217
aF0.3639647581680756
aF0.3158484321269299
aF0.3467829866627362
aF0.3322464104476824
aF0.35188174398154476
aF0.33373477754243414
aF0.2982158150581481
aF0.31880536326267644
aF0.30157763002362187
aF0.31500999675995156
aF0.22872185052346544
aF0.2657324841983863
aF0.18819350765198864
aF0.2161372581134621
asS'A6_y3.50_y4.00_fit'
p59
(lp60
F0.0
asS'A0_y2.00_y2.50_val'
p61
(lp62
F-0.006443467739309156
aF-0.0034421615211856467
aF0.017302877873950778
aF0.011478768409268108
aF0.0188520185670616
aF0.026162395821836902
aF0.05889457252195215
aF0.06985203427736539
aF0.09039594299056389
aF0.10013992800610844
aF0.1571224614946548
aF0.22482063466418045
aF0.27749031548403685
aF0.3184957079415973
aF0.3435436927538273
aF0.43776183229263294
aF0.5985047226330535
aF0.7226260059872416
aF0.7636258853436646
aF0.8375650868681662
asS'A5_y2.50_y3.00_fit'
p63
(lp64
F0.0
asS'A7_y1.20_y1.40_val'
p65
(lp66
F0.017046885231297156
aF0.013551238375102385
aF0.014948876060800887
aF-0.003611816824199522
aF-0.00956633474024961
aF0.012534050950980813
aF-0.006317724112644756
aF-0.012800829480618198
aF-0.023471218632009152
aF-0.007924526738173468
aF-0.008396035967877363
aF-0.007428544536192625
aF0.006657567384735715
aF0.029053907298301953
aF-0.005443631342476557
aF0.01141178350052698
aF-0.0028604646776965495
aF-0.008613192983224998
aF0.013886173757146023
aF0.024612504539148268
asS'A0_y1.00_y1.20_fit'
p67
(lp68
F0.0
aF-0.003222854513857759
aF0.0006163674313533034
aF-7.2674424030366594e-06
asS'A0_y1.60_y1.80_fit'
p69
(lp70
F0.0
aF0.007253699030255869
aF-0.0018091476655787016
aF0.0001539513181673812
aF-4.107776773572069e-06
aF3.534527997538262e-08
asS'A4_y0.60_y0.80_fit'
p71
(lp72
F0.14885167079726835
aF-0.0009859485836111806
asS'A5_y2.50_y3.00_val_err'
p73
(lp74
F0.008869071289652976
aF0.006090272789995643
aF0.006067549404862088
aF0.006516470144037103
aF0.007006256702249397
aF0.00759241140588464
aF0.00815327136532431
aF0.008922922536880554
aF0.009666374668682478
aF0.010478056022548431
aF0.008387669439753784
aF0.009780621144560544
aF0.011178272751918635
aF0.012892843303271314
aF0.014567803055461855
aF0.00910100805544304
aF0.01564195880724912
aF0.024919670393248165
aF0.02949792941934244
aF0.07022769063341074
asS'A7_y2.00_y2.50_val_err'
p75
(lp76
F0.007786699226516809
aF0.005337066065373172
aF0.005309756791022551
aF0.005673823109511122
aF0.006099310561421819
aF0.006556499861835396
aF0.007063176335028989
aF0.007572331627409227
aF0.00817718236307355
aF0.008854599900476106
aF0.007041842840671079
aF0.008072868271928522
aF0.009201884444083404
aF0.010418188190090851
aF0.011702504553592077
aF0.007119426848982716
aF0.011691329631515713
aF0.017666677087645508
aF0.02002142815820073
aF0.04365187494803231
asS'A4_y4.00_y4.50_fit'
p77
(lp78
F1.7332505721582883
aF-0.008653996216113125
asS'A3_y3.50_y4.00_val'
p79
(lp80
F0.004658270691083992
aF0.03168633007119783
aF0.07597431315169252
aF0.11448461073930252
aF0.11858066493936621
aF0.16192215516186043
aF0.20021289723553337
aF0.2269542797156495
aF0.245620398385454
aF0.2504591623670059
aF0.2774916629416263
aF0.3121151394676469
aF0.3387915746940003
aF0.3402971702276602
aF0.4731494121979998
aF0.6481146578758141
aF0.9275343842665643
aF1.1441545980737777
aF1.4132124190967112
aF1.7552869258189594
asS'A3_y2.00_y2.50_fit'
p81
(lp82
F0.0
aF0.006855069454415358
aF-0.00027074779886964405
aF4.313482938705937e-06
asS'A2_y1.80_y2.00_val_err'
p83
(lp84
F0.026508889514386583
aF0.01810335645608958
aF0.017975916122803706
aF0.019055812387907035
aF0.020639875324639647
aF0.022076340766652536
aF0.023773476298708435
aF0.02563666636116283
aF0.027841151767864208
aF0.03030362280435623
aF0.02406782670425985
aF0.02773948051646059
aF0.031773360498114946
aF0.0361643834807471
aF0.04070332430355673
aF0.024845121321175515
aF0.04058269446224351
aF0.06377804233547044
aF0.06974713679326372
aF0.14386204819055828
asS'A2_y0.80_y1.00_fit'
p85
(lp86
F0.0
aF-0.0022894948388075265
aF0.0006978553376830367
aF-9.902399392578933e-06
asS'A5_y1.40_y1.60_val_err'
p87
(lp88
F0.013153753005419976
aF0.008921663982738446
aF0.008736178407583619
aF0.009432091533491265
aF0.010070206447083768
aF0.010778191250724068
aF0.011610141781943568
aF0.012514160308953786
aF0.013513302872456731
aF0.014798329152507735
aF0.01163166668453455
aF0.0133340407029552
aF0.015196427847536866
aF0.01721889799600712
aF0.019176803892634042
aF0.011843102828412751
aF0.019464934506178533
aF0.029254813718107158
aF0.03205732273511123
aF0.06538132238883843
asS'A3_y2.00_y2.50_val'
p89
(lp90
F0.010621698140134894
aF0.013812794238990898
aF0.03283329510608412
aF0.03532150791695193
aF0.03069579422990034
aF0.047966967989343426
aF0.057915538595823546
aF0.06826280487150334
aF0.07462754330213986
aF0.05585207926375369
aF0.053908800821783676
aF0.07212726466218744
aF0.0789511117254975
aF0.08960725784279934
aF0.10925013283741875
aF0.2049322235946048
aF0.34470890446975727
aF0.4609638134340556
aF0.6391027009005588
aF0.9045828896921199
asS'A1_y1.60_y1.80_val'
p91
(lp92
F-0.012238608391376542
aF0.030520296584831186
aF0.0601494432613892
aF0.06490109873368674
aF0.10646212637753928
aF0.11704014298207469
aF0.141806789566561
aF0.14924037104166396
aF0.12886635306773878
aF0.14733425613759407
aF0.11432868352676948
aF0.12164152251347832
aF0.10032995536575823
aF0.11238283159184724
aF0.06597999629218188
aF0.09622036112106526
aF0.0756133518510903
aF0.07228205021134003
aF0.08329969947803191
aF0.02132069025687647
asS'A0_y0.40_y0.60_val_err'
p93
(lp94
F0.01688095697701679
aF0.011498189656891119
aF0.011205414979446028
aF0.0118667078686918
aF0.012748552487568527
aF0.013585177424545196
aF0.01460817844354403
aF0.015723363800858297
aF0.01676100103595093
aF0.018095993645949708
aF0.014261658532849006
aF0.016257450603531756
aF0.018361183015013743
aF0.020747771673440024
aF0.0233211601254694
aF0.014002983475311856
aF0.02262694993136792
aF0.033460040547133106
aF0.03618881919102429
aF0.07371494897843409
asS'A2_y4.00_y4.50_fit'
p95
(lp96
F0.0
aF0.010100219762017679
asS'A6_y1.00_y1.20_fit'
p97
(lp98
F0.0
asS'A6_y0.00_y0.20_val_err'
p99
(lp100
F0.014404123221596614
aF0.00979344710776975
aF0.00961885033874302
aF0.010109702002102237
aF0.010816911705270762
aF0.011565384224002275
aF0.012405521115653222
aF0.013255556860409549
aF0.014289342683952022
aF0.015306309579948931
aF0.012063007416119062
aF0.013718170293555114
aF0.015412717910799307
aF0.017166230293516035
aF0.019273225252679646
aF0.011490124312145997
aF0.01796056546780748
aF0.026594844574453023
aF0.028037913825541712
aF0.054603906705556336
asS'A2_y3.50_y4.00_val_err'
p101
(lp102
F0.022866204097180102
aF0.016051127931026025
aF0.016534267717473884
aF0.018146553634964917
aF0.01998786345729038
aF0.021516212144294097
aF0.023736383541272672
aF0.026111871722312146
aF0.028595692416906508
aF0.031544917486891894
aF0.02622689427601077
aF0.031271925788509625
aF0.037083033146063274
aF0.04410729062103867
aF0.05175324240015119
aF0.03417328373445056
aF0.06682323115978768
aF0.12476899417934251
aF0.19527359619009604
aF0.7409163076300425
asS'A1_y0.00_y0.20_fit'
p103
(lp104
F0.0
asS'A2_y4.00_y4.50_val'
p105
(lp106
F0.014503849264438108
aF0.019248209462586246
aF0.029145606556733327
aF0.02763131963409104
aF0.06363783172462364
aF0.028030734007472947
aF0.11331920521525614
aF0.07342940915525711
aF0.10727384475804067
aF0.2017294963793254
aF0.25779706253448736
aF0.22488620719139418
aF0.4500708840262857
aF0.48109533138759053
aF0.39933325370682726
aF0.6136229243350189
aF0.21224444094533557
aF0.44690980010053866
aF0.897037223606023
aF0.0
asS'A7_y1.80_y2.00_val'
p107
(lp108
F-0.0050208139314180935
aF-0.011381038813078868
aF-0.013551870033812181
aF0.012305712690199406
aF-0.019332128841331585
aF-0.00130143570053855
aF-0.007887171259322687
aF-0.01872511755732211
aF-0.014958292522287753
aF-0.019027551562113318
aF-0.01596268889374414
aF0.01248650561349002
aF0.01143887921477292
aF0.006736277092521615
aF0.014451473897673043
aF-0.016972669500349227
aF-0.02141615981065004
aF0.03413132323720811
aF-0.023332416600639724
aF-0.03790450676879048
asS'A2_y2.00_y2.50_fit'
p109
(lp110
F0.0
aF5.9632429745326565e-05
aF0.0005620619301432931
aF-8.076013658910952e-06
asS'A5_y4.50_y5.00_val_err'
p111
(lp112
F0.043813112400980514
aF0.03189982778880226
aF0.035012327210647155
aF0.039850713454773104
aF0.045457519731242006
aF0.05217058276928398
aF0.057343910964932576
aF0.06439810210275558
aF0.07200694562869753
aF0.08271196805090975
aF0.07452557424209982
aF0.09418925828224071
aF0.11708364738966699
aF0.1442672202216181
aF0.19120337774636942
aF0.16306966035730633
aF0.5025273905051046
aF1.360758353613883
aF0.0
aF0.0
asS'A0_y1.40_y1.60_val_err'
p113
(lp114
F0.01722667936174431
aF0.011640747754744562
aF0.011479129340602506
aF0.012227006480107295
aF0.013122208657551478
aF0.014016207536618124
aF0.015049521611660715
aF0.01618060125167785
aF0.01748469359369673
aF0.018897078298345575
aF0.014832285089743664
aF0.016881651283557276
aF0.019215290850992113
aF0.02170566874464676
aF0.02415796168899039
aF0.014674507986935316
aF0.023634175012692625
aF0.035487437092554634
aF0.03841930366670036
aF0.0797382381221325
asS'A6_y1.80_y2.00_val'
p115
(lp116
F0.007036718973331454
aF-0.019991174984272515
aF0.0013337962931866617
aF-0.001925473520824486
aF0.008732983403609347
aF-0.006168878253902866
aF-0.0025354695698478987
aF-0.020325273011036586
aF0.009555622294223793
aF-0.004450927507301389
aF-0.0025973782905865926
aF0.008446300497953705
aF0.013875940268105038
aF-0.03803336246702145
aF0.021122032921668168
aF-0.031270265544188276
aF-0.031853668541644835
aF0.003355155963505488
aF-0.014275892327058991
aF-0.021905211037685734
asS'A1_y0.80_y1.00_val_err'
p117
(lp118
F0.014546819143365324
aF0.009902577133692294
aF0.0097228568433359
aF0.010260154626927006
aF0.01098478385111279
aF0.011775572174514142
aF0.01266468442706743
aF0.013605606962495584
aF0.014674790381530325
aF0.015733535575262372
aF0.012540183987929651
aF0.014322966338969899
aF0.01603451398394451
aF0.0181574999978495
aF0.020258107655314883
aF0.012138283906893156
aF0.01958032171509301
aF0.02875068246377816
aF0.0314158688767963
aF0.06236731448466726
asS'A3_y1.40_y1.60_fit'
p119
(lp120
F0.0
aF-0.0013781520580757323
aF5.030450986620409e-05
asS'A2_y1.20_y1.40_val_err'
p121
(lp122
F0.025997555166275617
aF0.01772182159485457
aF0.017584204238964497
aF0.018646831323153867
aF0.01989672528734756
aF0.02139414666405994
aF0.02304984405219425
aF0.024866484827966315
aF0.026909808360516187
aF0.02912041385217756
aF0.0230827283226421
aF0.02651995566213436
aF0.030479224483522988
aF0.0345664763386764
aF0.03910829798507861
aF0.023543237612076363
aF0.038536793679939146
aF0.05792881717636664
aF0.06388879588650855
aF0.12786022369565705
asS'A2_y2.50_y3.00_val_err'
p123
(lp124
F0.017753524278853336
aF0.012173857634319538
aF0.012148544193157636
aF0.013109900269897935
aF0.01412072254156451
aF0.015275952179322485
aF0.01642046103488404
aF0.017889412338453887
aF0.019392295235839796
aF0.021135133249127074
aF0.016899845874405742
aF0.019813416220859192
aF0.022800602003791203
aF0.026219374715081744
aF0.029451878415209617
aF0.018324862318163132
aF0.03155411837790382
aF0.050069957230299035
aF0.06032319683479199
aF0.14317107424543749
asS'A5_y3.50_y4.00_val_err'
p125
(lp126
F0.011488276796494485
aF0.008088477815132198
aF0.008308344542228736
aF0.00905275197476104
aF0.009828720015833904
aF0.010742264499432495
aF0.011821664951935887
aF0.01291857872958956
aF0.014259698437825943
aF0.015817248737129377
aF0.012911886777833455
aF0.01548816719485065
aF0.01821197395476769
aF0.02138834721953508
aF0.02524585918256291
aF0.01688928814060377
aF0.03333855923299482
aF0.06235268244692031
aF0.09619977991332963
aF0.3510451166140249
asS'A7_y4.50_y5.00_fit'
p127
(lp128
F0.0
asS'A0_y3.50_y4.00_val_err'
p129
(lp130
F0.014939094305843195
aF0.010486484459255202
aF0.010790706247112088
aF0.011780676813937383
aF0.012846449825940827
aF0.013949793156159655
aF0.015287914666972137
aF0.016702135486316435
aF0.01834579666381064
aF0.020189613826291714
aF0.01652548262829999
aF0.019625053860959255
aF0.023121107915938355
aF0.027121894265892996
aF0.03182488452990322
aF0.020827713230886124
aF0.04044149779974585
aF0.0748258470422597
aF0.11426160320721801
aF0.41420729607425877
asS'A3_y0.40_y0.60_fit'
p131
(lp132
F0.0
aF-0.004498494381646928
aF9.874019696733951e-05
asS'A1_y0.60_y0.80_val'
p133
(lp134
F0.010949829504944367
aF0.032550760925769126
aF0.02791057283841251
aF0.07297282140359061
aF0.058342647149743014
aF0.06753670651777637
aF0.0796610017782202
aF0.10205891497075854
aF0.108516044819615
aF0.10789988618505496
aF0.081213460823945
aF0.08230041336700884
aF0.06835422757153316
aF0.04471863263598741
aF0.02349879263304628
aF0.04076039182903072
aF0.015281235276768708
aF-0.08544811780239119
aF0.025370413562246983
aF0.05789270830644389
asS'A4_y3.00_y3.50_fit'
p135
(lp136
F1.3343676004146268
aF-0.007358105430420626
asS'A7_y0.20_y0.40_val'
p137
(lp138
F0.01962781281797911
aF-0.0067861310533476205
aF0.0037724742560910234
aF-0.0033285505321624612
aF-0.0003606409432683794
aF-0.014205297633820885
aF0.01603286735173425
aF-0.005982435117965499
aF-0.003696298066825173
aF-0.03191921707432022
aF-0.02330774509122718
aF0.007687940600279143
aF-0.010174461845908244
aF0.00041865794654992206
aF0.01626383878865402
aF0.010941807101839425
aF0.013094928792172042
aF0.026583078184892958
aF-0.03017252784234605
aF-0.022367239490940036
asS'A0_y1.40_y1.60_val'
p139
(lp140
F0.0013424463529565617
aF-0.02017628153834326
aF-0.018591493721673798
aF0.035304082355237874
aF0.0006130160741540309
aF0.004662575849227947
aF0.042326617216693244
aF0.052306424326595005
aF0.07631351617937784
aF0.1545402004993115
aF0.15862789587149717
aF0.21777166276377213
aF0.25772887247309284
aF0.27696061348572487
aF0.3422721870817962
aF0.45150818865645065
aF0.6433285289275869
aF0.7222061937592726
aF0.8311744411853733
aF0.9104774003552168
asS'A7_y4.00_y4.50_val'
p141
(lp142
F-5.972966020059134e-05
aF0.007916947364173109
aF-0.0005845177206928925
aF0.003733681755912273
aF0.0064348353365144126
aF0.02198602127134138
aF-0.008242663434411405
aF-0.029526866665798093
aF0.0006906018746405171
aF0.020455700164605767
aF0.024368792930097385
aF-0.026419450193900133
aF-0.030157980831330772
aF0.0002540219473131327
aF-0.020866012394606732
aF0.017605561776519577
aF-0.0423865785208838
aF0.20661586582670247
aF-0.18631923748971005
aF0.0
asS'A6_y4.50_y5.00_fit'
p143
(lp144
F0.0
asS'A7_y3.00_y3.50_fit'
p145
(lp146
F0.0
asS'A3_y1.00_y1.20_val_err'
p147
(lp148
F0.01189643986956405
aF0.008121691978886585
aF0.007969483229422173
aF0.008491633467114361
aF0.009111559772317363
aF0.009744586315061796
aF0.010547214708913365
aF0.011326945343733194
aF0.01221351051593273
aF0.01318321938375709
aF0.010528834806511445
aF0.01224477490001919
aF0.01381411653034027
aF0.0158823482312652
aF0.017670737216250045
aF0.010752152230257182
aF0.017589858053705613
aF0.026797643762118482
aF0.02953400787738195
aF0.06058545479466651
asS'A0_y1.80_y2.00_val'
p149
(lp150
F-0.0006093659966945789
aF0.0075090489422725915
aF0.0048383996603173106
aF-0.014720427174082581
aF0.02398541227236094
aF0.023182702829713537
aF0.06083356689415688
aF0.06848174316744314
aF0.05075084761728888
aF0.12042206573342316
aF0.12874108360751915
aF0.19652304102052842
aF0.2542237158967714
aF0.30258188594319424
aF0.3809532360210421
aF0.4481834867486702
aF0.6032323866166553
aF0.7714223175589278
aF0.8046843417003096
aF0.7636039065097068
asS'A5_y1.40_y1.60_val'
p151
(lp152
F0.013465440057091903
aF-0.01947197682284557
aF-0.004107598362732361
aF-0.00237037727942438
aF-0.001992866005903232
aF-0.0102878273095297
aF-0.019615637084204544
aF-0.013951958001352073
aF-9.741233206963102e-05
aF0.005550228619764741
aF0.0023254926419660747
aF-0.005495838832550512
aF0.009474854586418273
aF-0.009132168467244815
aF-0.01624297084851043
aF-0.0013563143902601766
aF0.016857002416828214
aF0.020446974384041684
aF-0.02925815166118941
aF0.041454540286403975
asS'A1_y2.00_y2.50_fit'
p153
(lp154
F0.0
aF0.015476224421389378
aF-0.0005129304446735549
aF4.937588817330069e-06
asS'A0_y4.00_y4.50_val'
p155
(lp156
F0.035607096436219676
aF-0.0018924596986429276
aF0.025247608340904663
aF-0.008843062159837042
aF0.0691145430060738
aF0.023176739128279007
aF0.07866763725621802
aF0.06238201254238296
aF0.113996700555756
aF0.15495261423817644
aF0.13863108689431602
aF0.23060100838532605
aF0.34189807416918677
aF0.3676373549818779
aF0.3856656374374623
aF0.5137260117717076
aF0.4954384860184228
aF0.40387159345109175
aF1.2312811173080709
aF0.0
asS'A3_y0.20_y0.40_val_err'
p157
(lp158
F0.011864086773606106
aF0.00807790010102397
aF0.007911636805659298
aF0.008331218708960818
aF0.008943075329976876
aF0.009588822385372274
aF0.010316541363595074
aF0.011113471605884303
aF0.011975278622808786
aF0.01295972261304372
aF0.010244601939641771
aF0.01183407656629115
aF0.01358698996231018
aF0.015392708086377951
aF0.01724062443646577
aF0.010562639365275607
aF0.017177230710415225
aF0.026106758373796276
aF0.02858580035419489
aF0.05744469673695413
asS'A3_y3.00_y3.50_val'
p159
(lp160
F0.030085597320789144
aF0.04398476267606883
aF0.050395962118851785
aF0.0635507139072169
aF0.10097688367072628
aF0.12516736640112175
aF0.13793112130179758
aF0.175014100383008
aF0.19629159638698535
aF0.21652037935426596
aF0.1962206961085813
aF0.2017703866978458
aF0.240557839281084
aF0.26837377159393505
aF0.3281829564023298
aF0.4617424240578742
aF0.7092470218549106
aF0.8730079504966158
aF1.1208417450721004
aF1.1934503896945998
asS'A4_y0.40_y0.60_val_err'
p161
(lp162
F0.013743390377265912
aF0.009305800487019285
aF0.009114998657990456
aF0.009638523097972336
aF0.01031962698262567
aF0.011024847500528427
aF0.011886712908336242
aF0.012720314209337748
aF0.013610661453878146
aF0.014593935109216962
aF0.011445768922861957
aF0.012942847648297473
aF0.014512985642757067
aF0.01632168173101533
aF0.018019200362757906
aF0.010706244674758156
aF0.01680389567639896
aF0.02450349181916213
aF0.026044511670441743
aF0.05246948394094253
asS'A0_y2.50_y3.00_val'
p163
(lp164
F0.00046595124086754616
aF0.0023956250970307417
aF0.002473970999564061
aF0.02475148326853479
aF0.011236088812010344
aF0.060225101987593996
aF0.04117630585606795
aF0.07877358214439263
aF0.10433989001867128
aF0.10949215618767388
aF0.1567360990131971
aF0.2436844828637635
aF0.2727611490049409
aF0.34165273030501286
aF0.36388770684512284
aF0.4625634053088616
aF0.6188860227440138
aF0.7285926279904794
aF0.7529633238151502
aF0.95708981095847
asS'A4_y1.60_y1.80_val_err'
p165
(lp166
F0.014247445347395063
aF0.009636792815418321
aF0.009542065509919817
aF0.010179747579200087
aF0.010923449971352804
aF0.01165367920468687
aF0.012504320167634742
aF0.013430102020161023
aF0.014349465928803427
aF0.015634974033015253
aF0.012218827866644529
aF0.013889850141958713
aF0.01549399153039423
aF0.01738658522448109
aF0.019462594062526917
aF0.011516792616390539
aF0.018278930096911297
aF0.026645199186419187
aF0.028931492996988578
aF0.05805107509053996
asS'A4_y2.00_y2.50_val_err'
p167
(lp168
F0.00940132779991119
aF0.006441847819758973
aF0.006363054805804792
aF0.00680435452023606
aF0.007300138399795497
aF0.007839334144565167
aF0.008397103936973948
aF0.009002114666321125
aF0.00971490933754934
aF0.010506074180855477
aF0.00827499527215902
aF0.00938113335425485
aF0.010620644470121487
aF0.011933016608700516
aF0.013338214216277011
aF0.007949043425539348
aF0.012619763458488911
aF0.01868058338186152
aF0.02107549418241856
aF0.044538703489231814
asS'A6_y0.40_y0.60_val_err'
p169
(lp170
F0.014492024307293731
aF0.009776654601345946
aF0.009607634541926315
aF0.010136127269135214
aF0.01081673707967681
aF0.011609628563888004
aF0.012567709505241819
aF0.01345064031385983
aF0.014325441914391536
aF0.015345544335453116
aF0.012142006693165584
aF0.013727231903211493
aF0.015445994096059328
aF0.017436205628544418
aF0.01916252331389135
aF0.011488867701630906
aF0.018081927366280386
aF0.026839847421330654
aF0.02842815606699885
aF0.05675588089215762
asS'A4_y0.60_y0.80_val'
p171
(lp172
F0.1481336502903944
aF0.1530981472329423
aF0.1524649599811289
aF0.1519337445953632
aF0.12312734955037066
aF0.11498085009064382
aF0.13528897509338444
aF0.13992853530534793
aF0.11971050848242215
aF0.12870171478620349
aF0.12374104558409178
aF0.13222169932117964
aF0.14163229797553475
aF0.10259166356961992
aF0.1129859562057011
aF0.10010283499450534
aF0.07450465266954495
aF0.10547808056262965
aF0.11439916074497965
aF0.10985769406795517
asS'A3_y1.60_y1.80_fit'
p173
(lp174
F0.0
aF-0.007712938611228074
aF0.001908631302491103
aF-0.00013457873587648916
aF3.608171724615757e-06
aF-3.202742252183995e-08
asS'A1_y0.80_y1.00_val'
p175
(lp176
F0.01520634793633067
aF0.03378875758021885
aF0.03421122405822235
aF0.06607329777351872
aF0.0563931572146132
aF0.09343819552065136
aF0.11666008232529178
aF0.09022440002026391
aF0.1373761978861593
aF0.13718648364439434
aF0.08814923719697193
aF0.11388631116526478
aF0.06569170057021032
aF0.096518120074617
aF0.10334223806052248
aF0.049434403417673946
aF0.027850398285332634
aF0.027423286704874882
aF-0.012513260630361346
aF0.022945377921027587
asS'A1_y1.20_y1.40_val_err'
p177
(lp178
F0.014623247960574019
aF0.009934876742763749
aF0.009840879145291557
aF0.010441133831550717
aF0.011160199957781945
aF0.011941516842791594
aF0.012912169749868994
aF0.01387549438260357
aF0.01495512078388958
aF0.015986353041672906
aF0.012680624452054545
aF0.014569892062764288
aF0.016421815164947902
aF0.018392550820991324
aF0.02066290273718816
aF0.012384480443904285
aF0.01979951062144276
aF0.02951646401471663
aF0.03202203984216233
aF0.06521303447747226
asS'A0_y0.80_y1.00_fit'
p179
(lp180
F0.0
aF-0.0018652691064829918
aF0.0004886536016600954
aF-5.123727911975621e-06
asS'A3_y1.00_y1.20_fit'
p181
(lp182
F0.0
aF-0.0024419774058706267
aF6.232991040971362e-05
asS'A5_y1.40_y1.60_fit'
p183
(lp184
F0.0
asS'A5_y0.80_y1.00_val'
p185
(lp186
F-0.01361872961977342
aF-0.008589269224991236
aF0.014284469652280649
aF-0.014244547850284802
aF-0.01228580105973094
aF-0.011451967415108975
aF-0.009913637851146956
aF-0.013688106923503647
aF-0.00748058717161866
aF-0.02420024299627113
aF-0.004719089337901337
aF0.02006440615540134
aF-0.023102796415338855
aF-0.023450287259372996
aF0.020490156272407314
aF-0.01503468329203069
aF0.004658037799574475
aF-0.005000806128008983
aF0.0409248063612945
aF0.03475961451916469
asS'A2_y0.00_y0.20_fit'
p187
(lp188
F0.0
aF-0.0013366346105137261
aF0.0005781938659162843
aF-8.172382399895226e-06
asS'A5_y1.80_y2.00_val'
p189
(lp190
F0.0013597457502544466
aF0.0014230862182865308
aF-0.008084468305094109
aF0.012483336957807904
aF-0.008686927194868695
aF-0.01693627549979251
aF0.015479408293302164
aF0.0008519247135551127
aF0.013444286217556198
aF0.012442932193307674
aF0.012494104732158359
aF-0.0101963485736743
aF-0.007380874854339779
aF-0.00026724584091444256
aF-0.009966407055063246
aF0.007319425202607446
aF-0.02204155862322055
aF-0.008438781960197098
aF0.03481803095338606
aF-0.11661979067305188
asS'A7_y0.60_y0.80_fit'
p191
(lp192
F0.0
asS'A0_y1.60_y1.80_val'
p193
(lp194
F-0.0332930001858996
aF0.020824858173339445
aF0.01267214714528341
aF-0.002458716834809185
aF-0.0038607928061722813
aF0.014379045813884415
aF0.035933777544022695
aF0.031114038911453486
aF0.08538074735040893
aF0.0908126374810423
aF0.13105976616269382
aF0.1980271580632706
aF0.3107143190458708
aF0.3148645695645915
aF0.3395583418024597
aF0.455758270496515
aF0.5928815133354356
aF0.7444949864835371
aF0.7932935771002381
aF0.8448548505373423
asS'A3_y1.20_y1.40_val_err'
p195
(lp196
F0.01192602614710917
aF0.008131105708255846
aF0.008062005488081198
aF0.008570716275287571
aF0.009154388000317124
aF0.009799088107705524
aF0.010624372945577339
aF0.011451326722164588
aF0.012344381489140629
aF0.013383229552635217
aF0.010599749003219102
aF0.012282867382256021
aF0.014082931522716825
aF0.015930441384720145
aF0.01801674456945543
aF0.01089383018531087
aF0.01789471147636671
aF0.02698435251060902
aF0.030017252619674067
aF0.06041811137080386
asS'A2_y0.00_y0.20_val_err'
p197
(lp198
F0.025912709329113583
aF0.01754980274353694
aF0.017173894886511394
aF0.018162101587864875
aF0.019452543523612913
aF0.020911076648531333
aF0.022465458005285707
aF0.024089343267985095
aF0.026119799987878018
aF0.02830952586716196
aF0.022391625405253
aF0.025810885693728903
aF0.029614746404119697
aF0.033283601202133285
aF0.03722014666982118
aF0.022594678606259425
aF0.036708619621284286
aF0.056237017698196196
aF0.061352321636107474
aF0.12434877518997668
asS'A6_y0.00_y0.20_val'
p199
(lp200
F0.012370312560973238
aF-0.005075887634151865
aF-0.0004891591655047678
aF0.00283883233437526
aF-0.014866155465706483
aF0.006270835037156455
aF0.006075021512087561
aF0.0013069673078623123
aF-0.007365102257961572
aF-0.011892824454818065
aF0.0209088156463542
aF0.003118026331017965
aF0.006473289543585703
aF0.01397658566287536
aF-0.022295516199093566
aF0.017124828749877252
aF0.0032594180157916285
aF-0.0020048461558562305
aF0.032597504510884875
aF-0.040008773762310455
asS'A2_y1.00_y1.20_fit'
p201
(lp202
F0.0
aF-0.004295006407626062
aF0.000782179571311336
aF-1.0907319667545143e-05
asS'A3_y1.80_y2.00_val'
p203
(lp204
F0.011605960652279368
aF-0.003927528534821468
aF0.01703250084553256
aF0.011672476395775953
aF0.012567800455630598
aF0.02126636013812527
aF0.029744470010594746
aF0.005564586633573068
aF0.029629733044397324
aF0.019932301120286603
aF0.015249934987613357
aF0.023457801062938533
aF0.040639423370830506
aF0.03676577182282363
aF0.054616980985109365
aF0.15026393284035686
aF0.26610902393518626
aF0.31748054037297013
aF0.48666688306581873
aF0.7264707189162168
asS'A2_y2.50_y3.00_val'
p205
(lp206
F-0.010973311672464136
aF0.03181388712094019
aF0.008185677888782479
aF0.06089431245807508
aF0.0681859898012591
aF0.06745818447435452
aF0.09460223502608847
aF0.08986499318128728
aF0.1408663534395675
aF0.16059527353487685
aF0.19204609014627522
aF0.26441077947946584
aF0.31381059299386993
aF0.31335676042710253
aF0.3534211888898734
aF0.4040329554191331
aF0.5415950080026336
aF0.6848684275984168
aF0.8389106369748963
aF0.6320316030836339
asS'A3_y4.50_y5.00_val_err'
p207
(lp208
F0.03987000075461288
aF0.029191325444448277
aF0.03244134478692226
aF0.036330583771229545
aF0.04194416838189185
aF0.04795610962780162
aF0.053076892277494396
aF0.05926935461847444
aF0.0701133538679257
aF0.07994845911109377
aF0.06907354407988524
aF0.08847082035613159
aF0.11706674509213581
aF0.13639460324543776
aF0.18680744164535304
aF0.16771318590434695
aF0.5378540734554845
aF1.2679138386656479
aF0.0
aF0.0
asS'A7_y1.60_y1.80_fit'
p209
(lp210
F0.0
asS'A5_y0.40_y0.60_val_err'
p211
(lp212
F0.012905651977765603
aF0.008785260176920398
aF0.008631372109897607
aF0.009084364465087407
aF0.009764708818855704
aF0.010432992728096308
aF0.011237746224864295
aF0.012155705489539172
aF0.0129237349688613
aF0.013953125018106194
aF0.011202075898002454
aF0.012793050953396093
aF0.01447637027347421
aF0.016561658615207947
aF0.018647388788232862
aF0.011344070339738208
aF0.018585435067050963
aF0.027634582437509946
aF0.03026185853221934
aF0.06126181566680911
asS'A7_y0.40_y0.60_fit'
p213
(lp214
F0.0
asS'A1_y1.40_y1.60_fit'
p215
(lp216
F0.0
aF0.009379698638988354
aF0.0003089178379743155
aF-2.703000311262381e-05
aF3.5273036556229685e-07
asS'A1_y3.00_y3.50_val'
p217
(lp218
F0.022958572879849475
aF0.022457239628590694
aF0.048698775471274006
aF0.06894490463961542
aF0.07216625850501167
aF0.10064681239978067
aF0.1194383821228917
aF0.15629622580064279
aF0.15454085752763635
aF0.18234433766812513
aF0.14916077086142185
aF0.1422433629947834
aF0.13762182043356766
aF0.15656743907313952
aF0.18203794461713138
aF0.1691023840346989
aF0.20846876290821317
aF0.21962297139235215
aF0.26525025764912424
aF0.0972322271619043
asS'A1_y4.50_y5.00_fit'
p219
(lp220
F0.0
aF0.01320572649894633
asS'A1_y1.60_y1.80_val_err'
p221
(lp222
F0.014757712252792335
aF0.010010404485754992
aF0.009970204680601547
aF0.010635897839773145
aF0.011409293835333371
aF0.012176792650318569
aF0.013123134243941141
aF0.014159994907872071
aF0.015245763553718237
aF0.016544696485401786
aF0.012999102894782379
aF0.01495040543822444
aF0.016872782085919715
aF0.01882433926168283
aF0.02130958557506586
aF0.012790901355138688
aF0.020726591241277466
aF0.030744200271498316
aF0.03355085284855458
aF0.06780660736608632
asS'A6_y2.00_y2.50_fit'
p223
(lp224
F0.0
asS'A3_y0.80_y1.00_fit'
p225
(lp226
F0.0
aF-0.002961742436464021
aF6.042599787466204e-05
asS'A4_y0.40_y0.60_fit'
p227
(lp228
F0.10821670416947049
aF-0.000757968319005542
asS'A0_y0.60_y0.80_fit'
p229
(lp230
F0.0
aF-0.005127559216379002
aF0.0007253965439768546
aF-8.758787741396703e-06
asS'A7_y2.50_y3.00_fit'
p231
(lp232
F0.0
asS'A4_y3.50_y4.00_fit'
p233
(lp234
F1.5661472743950446
aF-0.00815699839811243
asS'A3_y1.20_y1.40_fit'
p235
(lp236
F0.0
aF-0.002265363882355792
aF6.459355112174714e-05
asS'A4_y2.00_y2.50_val'
p237
(lp238
F0.7539753895354496
aF0.7480803386845496
aF0.7236295607298411
aF0.7102153064527856
aF0.7031277709754813
aF0.6875938111110214
aF0.6841385708678391
aF0.6758733205516259
aF0.6821987494783491
aF0.6697419094176642
aF0.6765942283082965
aF0.657937375502119
aF0.6464256610847873
aF0.6224505196713477
aF0.5947068102355072
aF0.5694321615138069
aF0.46823583833282256
aF0.42812711698406136
aF0.39204022391006227
aF0.2718634464415906
asS'A6_y2.00_y2.50_val_err'
p239
(lp240
F0.009515364897543207
aF0.006508324792295844
aF0.006467051338652682
aF0.006912032711101048
aF0.007427644596831939
aF0.007970901954880922
aF0.00855000902397021
aF0.009155728071810646
aF0.009891069209066947
aF0.010668310832989292
aF0.008486520974733978
aF0.009621697713298039
aF0.0109003234111733
aF0.012299403334386526
aF0.013852323119971602
aF0.00829231800581996
aF0.01333558611774268
aF0.019815080755010425
aF0.022475077895813756
aF0.04811579399160252
asS'A2_y2.00_y2.50_val_err'
p241
(lp242
F0.016984437019142023
aF0.011642488603071998
aF0.011600608303839436
aF0.01240190184686184
aF0.013397946399223572
aF0.014395970953417154
aF0.015562795279462822
aF0.016771556748975947
aF0.018082784889496026
aF0.019705560278282016
aF0.015755797887982988
aF0.01821287164976196
aF0.021013049511225977
aF0.023949609069489414
aF0.026942023637843843
aF0.016381893824125932
aF0.027306809306906304
aF0.04198856069756452
aF0.04809532335567529
aF0.10396404786299418
asS'A2_y4.50_y5.00_val'
p243
(lp244
F0.0542444583300773
aF0.008354635117182043
aF0.03671071562888389
aF0.06597323641995302
aF0.07359872290181992
aF0.04813802255359453
aF0.17192691561752707
aF-0.03550292914092328
aF0.39274617012465923
aF0.17427671643679143
aF0.08460374898511641
aF0.3428862851261418
aF0.3907489433999018
aF0.3101085169464616
aF0.37886579098369333
aF0.8003202644076224
aF1.091439518802058
aF2.8824510968050228
aF0.0
aF0.0
asS'A6_y1.20_y1.40_fit'
p245
(lp246
F0.0
asS'A1_y0.80_y1.00_fit'
p247
(lp248
F0.0
aF0.004156516090390128
aF0.00120920293704684
aF-0.00010140288534733322
aF2.700549567072677e-06
aF-2.362952531184493e-08
asS'A4_y2.50_y3.00_val_err'
p249
(lp250
F0.01016680254975928
aF0.006971583510702314
aF0.00691550147624345
aF0.007398232958221461
aF0.007971380425513054
aF0.008517362350179034
aF0.009185215362098294
aF0.00992777606280792
aF0.010656256642744364
aF0.011597628717397744
aF0.009139248652580374
aF0.010451104013392786
aF0.011848257427477787
aF0.013408305512869192
aF0.01494567192913611
aF0.009021649824822743
aF0.014707163679911794
aF0.022504306726097444
aF0.026477394919858597
aF0.059244778070368945
asS'A2_y1.60_y1.80_val'
p251
(lp252
F0.028340556995777644
aF-0.015406426144928018
aF0.021245830438964927
aF0.034301107379250274
aF0.047294591342954835
aF0.06158968354443895
aF0.05608415111066933
aF0.08750466337621585
aF0.12154197613426261
aF0.12267387408802163
aF0.1697389913543199
aF0.2496640593992739
aF0.30123014420938776
aF0.32392603815313964
aF0.434774351337547
aF0.40971514922729024
aF0.5273310930983476
aF0.6468250328013289
aF0.6247452992272314
aF0.6958268103197862
asS'A1_y2.00_y2.50_val'
p253
(lp254
F0.019138751347482226
aF0.036033928157735
aF0.06735957036521667
aF0.08630586037270649
aF0.08646467675142759
aF0.11712370717788488
aF0.12366768869696573
aF0.13853262153531243
aF0.15414063142635007
aF0.15563894386395263
aF0.1329654029963719
aF0.15203682985484318
aF0.13388483993190034
aF0.11946572579915046
aF0.11198384374792135
aF0.11019835461746552
aF0.08167338041984273
aF0.08241869631288666
aF0.10911210694957092
aF0.15940934668739357
asS'A4_y4.00_y4.50_val'
p255
(lp256
F1.688462247655529
aF1.6829258666710283
aF1.6877085357487913
aF1.6773322773101287
aF1.6730513670495752
aF1.6583131745992845
aF1.648390490219633
aF1.6676259953037318
aF1.5889043515800256
aF1.6130007050347173
aF1.5553600417745272
aF1.490515324095282
aF1.4108959663196083
aF1.3676511703514382
aF1.3889660182343702
aF1.2823824473182381
aF1.1905907439905055
aF0.8411049217060919
aF0.7216374501665626
aF0.0
asS'A1_y2.50_y3.00_val_err'
p257
(lp258
F0.009916756421806583
aF0.006816603245100863
aF0.00679430502962761
aF0.00730867123821308
aF0.00787054645567248
aF0.008477660165854873
aF0.009179710166551463
aF0.009952616583803293
aF0.010761470011114781
aF0.011722324755818343
aF0.009274744244825725
aF0.010709200288331725
aF0.01221232883460244
aF0.013909368490783183
aF0.015529244732792822
aF0.009629163189518519
aF0.016269565517669844
aF0.02564700419859814
aF0.030453680473917513
aF0.06901114498612086
asS'A5_y1.60_y1.80_fit'
p259
(lp260
F0.0
asS'A1_y4.00_y4.50_val_err'
p261
(lp262
F0.019847687514740614
aF0.014164587212040036
aF0.01485538518269448
aF0.016443587853270613
aF0.018263153744880314
aF0.020096737367915726
aF0.022148062094477887
aF0.025017441922536344
aF0.027574017585815694
aF0.03106816123256868
aF0.025928111993225172
aF0.03202072691532623
aF0.03790041168929439
aF0.046336750682431906
aF0.055473220013082816
aF0.03985013828908765
aF0.09045473860357763
aF0.2207601710629164
aF0.36200650401172546
aF0.0
asS'A3_y3.50_y4.00_fit'
p263
(lp264
F0.0
aF0.014054474924314303
aF0.0002361083180225966
aF-1.9090558292056284e-05
aF2.7921007209046896e-07
asS'A2_y0.40_y0.60_val_err'
p265
(lp266
F0.025913302612975454
aF0.0175674833508086
aF0.01720942966490918
aF0.01824234467711027
aF0.01957519401362073
aF0.020913609875825367
aF0.022517680663509614
aF0.02432203604242048
aF0.025984820039512385
aF0.028132708707208673
aF0.022458567697868723
aF0.02595987074675889
aF0.02959968529748671
aF0.033508707155809885
aF0.03761516494016587
aF0.022808985140528315
aF0.03730182975434606
aF0.05615711909291777
aF0.06098588165651343
aF0.12591839157375276
asS'A3_y0.60_y0.80_fit'
p267
(lp268
F0.0
aF-0.003539521387819544
aF8.027537290015594e-05
asS'A3_y0.00_y0.20_val_err'
p269
(lp270
F0.011853882675064046
aF0.0080494445336383
aF0.007874718134534213
aF0.008338808291060843
aF0.008905533464732754
aF0.009616180355627888
aF0.010281318212796748
aF0.011026372385500001
aF0.012015975213656943
aF0.012948111057765692
aF0.01028870870316663
aF0.011832446386131623
aF0.013572484822175584
aF0.015286010170300204
aF0.01711234012579492
aF0.010456686046093629
aF0.017048528640131073
aF0.026111224478916426
aF0.02840518022416234
aF0.05680854762616446
asS'A3_y0.80_y1.00_val_err'
p271
(lp272
F0.011896359081346826
aF0.008131854375093811
aF0.007982405548682563
aF0.008430316515447862
aF0.008996225723350555
aF0.00972536764836873
aF0.010355732776867306
aF0.011225720929969265
aF0.012219662951404957
aF0.013085815315671401
aF0.010480501444285327
aF0.0121394745566157
aF0.013748313312324689
aF0.015742690447979008
aF0.017572635104136255
aF0.010720809727770748
aF0.017536691822840757
aF0.02639399473922741
aF0.029374607056624084
aF0.058637988588986806
asS'A6_y1.40_y1.60_val'
p273
(lp274
F-0.01681643521737836
aF0.010423057357338976
aF-0.0017153213873589606
aF-0.003329059235015805
aF-0.006970400546354358
aF-0.0050987310358386
aF-0.030457576479912537
aF-0.011912589821074923
aF0.019431949590224432
aF-0.005968451294390798
aF0.011722007020599787
aF-0.0020127522113052867
aF-0.00955965275934882
aF-0.02255756047782211
aF-0.015047554725278687
aF0.0007967502794340416
aF0.03075487895718755
aF0.00582016526962723
aF0.03471285179344371
aF-0.15532838442466196
asS'A5_y1.60_y1.80_val_err'
p275
(lp276
F0.013055809483891847
aF0.009013029003932086
aF0.008917318417470677
aF0.009485822161518708
aF0.010170584715510769
aF0.010895654440764624
aF0.011734833515213414
aF0.012617999815553822
aF0.013667197654140085
aF0.014736600303431806
aF0.0117369268764984
aF0.013552791320921699
aF0.01550727807836147
aF0.017519096314489956
aF0.019772954460996355
aF0.012014692734537934
aF0.01995312687485314
aF0.030096037436592397
aF0.03344334029259188
aF0.06808321445128958
asS'A1_y1.80_y2.00_val'
p277
(lp278
F0.023242525624077706
aF0.022103220139155427
aF0.04756053546525102
aF0.07898368612859093
aF0.08250443426308578
aF0.10053352845769827
aF0.11875399814171665
aF0.12713909939719029
aF0.13435596174207431
aF0.14544526308647932
aF0.12092247894530457
aF0.12603377294076126
aF0.0908627716678691
aF0.09845014062386126
aF0.11468909842264619
aF0.10250257079805901
aF0.06220773611571647
aF0.05798108387791876
aF0.08863746677006153
aF0.1260142352456821
asS'A5_y0.60_y0.80_val'
p279
(lp280
F-0.019516198706799805
aF-0.005219101735286576
aF0.016176662910076904
aF0.005974566822586876
aF0.013438515400903005
aF0.009521926139682255
aF-0.003121087908859298
aF0.0033176889353621723
aF0.0022303816310850835
aF-0.016683663896787587
aF0.004241356177318904
aF-0.0013607990023533306
aF-0.01932733424596754
aF-0.012180243874098043
aF0.010498003315870065
aF-0.00419159313311601
aF0.04378406594384779
aF0.035632538120433245
aF-0.03330485646089869
aF-0.04338250400159417
asS'A6_y3.00_y3.50_val_err'
p281
(lp282
F0.01070639270169851
aF0.007381165281256273
aF0.00744311102357186
aF0.008050166491744164
aF0.008657265311991723
aF0.009406331541131435
aF0.010180394177397122
aF0.011002922053334393
aF0.011949013900919719
aF0.013063252654534875
aF0.010373533783494095
aF0.012126394910822751
aF0.013923500729490048
aF0.015849171661852866
aF0.018005769281658784
aF0.011336053472557749
aF0.02003470764704433
aF0.0334942194765349
aF0.04186697166920955
aF0.11755825551035158
asS'A1_y0.20_y0.40_val'
p283
(lp284
F0.006835310752081376
aF0.002805779633790422
aF0.026625189825070353
aF0.010506314888709366
aF0.02730295703389981
aF0.04434791941154084
aF0.054018808926909676
aF0.030376080965235662
aF0.04842529137178447
aF0.049688955915406036
aF0.055467094068598864
aF0.0332381546307504
aF0.023686395016535963
aF0.0372368414779084
aF0.016154114903467198
aF0.020836215273609404
aF0.03063423018048527
aF-0.012191154745686592
aF-0.016529170394856473
aF0.002848508034250414
asS'A2_y0.20_y0.40_val'
p285
(lp286
F-0.013873828688166629
aF-0.0016297282437115286
aF0.007226523867820586
aF-0.0011270148575074793
aF0.03267335241861666
aF0.04926292984798049
aF0.05949697766122219
aF0.08824421957709896
aF0.12028568726061473
aF0.09181163106417388
aF0.12491859724320666
aF0.2021921682226695
aF0.31127248264658447
aF0.3116200855207365
aF0.3105898891130589
aF0.43079156645083827
aF0.5065530582130322
aF0.7183292771773739
aF0.7586315811092791
aF0.8049162518853236
asS'A1_y0.40_y0.60_fit'
p287
(lp288
F0.0
aF0.004741091999921454
aF-7.770422671000542e-05
asS'A6_y4.50_y5.00_val_err'
p289
(lp290
F0.047767993619784045
aF0.03554775637388254
aF0.03897326387240687
aF0.0437518856086153
aF0.05095939306194616
aF0.05743810901318818
aF0.0615883672270527
aF0.07151521747971035
aF0.07788170800259044
aF0.09375260723229231
aF0.07914501763588604
aF0.09717702248374509
aF0.12663779089270966
aF0.15171903656786107
aF0.20716488352747822
aF0.16167620669327193
aF0.44706032643356763
aF1.2406804544187202
aF0.0
aF0.0
asS'A1_y4.00_y4.50_fit'
p291
(lp292
F0.0
aF0.010819425135119284
aF-8.635540998168335e-05
asS'A6_y3.00_y3.50_fit'
p293
(lp294
F0.0
asS'A3_y1.60_y1.80_val_err'
p295
(lp296
F0.012062541986016317
aF0.00824008503987832
aF0.008178715401331447
aF0.008713515657181353
aF0.00935180842466295
aF0.01002813520707369
aF0.010805765521195776
aF0.011633648093502997
aF0.01260853791461876
aF0.013736716841763372
aF0.01086627759304503
aF0.01261482424495329
aF0.014470561735659733
aF0.016301634758055582
aF0.01847502492458809
aF0.011220435622213873
aF0.01858939513443763
aF0.02831886306381639
aF0.031443484182935924
aF0.06470474830147949
asS'A2_y3.00_y3.50_val'
p297
(lp298
F-0.012694299090352584
aF-0.0029253740911578136
aF0.0295791683743819
aF0.01938919585017035
aF0.07176180564112644
aF0.062195773159046085
aF0.07093492608748686
aF0.10745971945743331
aF0.11477525106091119
aF0.16511376575001732
aF0.2049875749539782
aF0.27634258506359377
aF0.3020461606651565
aF0.31728715921423284
aF0.4215856851277188
aF0.42225454770748505
aF0.5688849984169011
aF0.5950889623867864
aF0.65065247180519
aF0.8927100585085146
asS'A5_y0.40_y0.60_val'
p299
(lp300
F-0.002346513001779647
aF0.01131511781404519
aF-0.004887666657260451
aF-0.00033758900435671546
aF0.006273912856106886
aF0.0005876092911223816
aF0.01364961561852729
aF-0.011787671714824153
aF0.011981770269298472
aF-0.0016439710833094912
aF-0.000623306561027557
aF-0.0036867401304647657
aF-3.626239021121487e-05
aF0.01219708214587003
aF-0.005196936324223825
aF0.0031662505975664527
aF-0.035797405230272236
aF-0.008265978333192167
aF-0.04065994876875873
aF0.07391885231632676
asS'A6_y4.00_y4.50_val_err'
p301
(lp302
F0.01955484034843947
aF0.01414992335076426
aF0.014785041744554174
aF0.016410441546334253
aF0.01820803961225936
aF0.01993848362545527
aF0.02188624016923249
aF0.02447176153311424
aF0.027260367039624905
aF0.03019304907912443
aF0.025160478660188577
aF0.031395204581351754
aF0.03675471439715724
aF0.04402691206051651
aF0.053013939016079474
aF0.03670644354646361
aF0.08769875598706829
aF0.2096022318385253
aF0.3752159832848137
aF0.0
asS'A2_y2.00_y2.50_val'
p303
(lp304
F0.00925026950154842
aF0.02039186720213955
aF0.015007285391508097
aF0.026599636649457456
aF0.02930993261252466
aF0.05339979937029409
aF0.06810118726788018
aF0.10417026122732252
aF0.13848829893930237
aF0.16153153912968043
aF0.17700309345677365
aF0.23286969481477088
aF0.29660309040126787
aF0.3371884006438368
aF0.37399969776531616
aF0.3977471640287956
aF0.5246144712839828
aF0.6554780448925585
aF0.7488768617574012
aF0.6751210819897272
asS'A5_y3.50_y4.00_fit'
p305
(lp306
F0.0
asS'A3_y0.40_y0.60_val'
p307
(lp308
F-0.0004093827916120336
aF-0.0032761522919273886
aF-0.01680827418948725
aF-0.03301981684163399
aF-0.033682259786673566
aF-0.04730198802976981
aF-0.04478079418166356
aF-0.03033596622313336
aF-0.034959805283208
aF-0.04217573188555006
aF-0.03894633059873799
aF-0.06768846714511664
aF-0.0668207766061051
aF-0.04306106020271486
aF-0.027898988091256027
aF0.026256399530169228
aF0.05875038597234128
aF0.07718011743711008
aF0.1562919431414813
aF0.23672053116540337
asS'A1_y0.60_y0.80_fit'
p309
(lp310
F0.0
aF0.011581788506361046
aF-0.000453964911389812
aF4.744746948264031e-06
asS'A7_y0.20_y0.40_fit'
p311
(lp312
F0.0
asS'A5_y0.60_y0.80_fit'
p313
(lp314
F0.0
asS'A0_y0.20_y0.40_val'
p315
(lp316
F0.008167480668862503
aF0.010703885211253374
aF-0.002502676923884881
aF-0.007858927032948831
aF-0.013359510782837784
aF0.0006831401421981753
aF0.040134217165395045
aF0.06082849961155281
aF0.06494321751044085
aF0.09614198807705446
aF0.13474684719209143
aF0.19666843011434176
aF0.26980829331810563
aF0.2936435685972223
aF0.345099978603805
aF0.4526004346704418
aF0.5910045443893142
aF0.7565310944558341
aF0.8262315797367112
aF0.787634440279029
asS'A0_y3.00_y3.50_val'
p317
(lp318
F-0.00798362922275742
aF0.004533331661459222
aF0.015146444962214987
aF0.021914448515309354
aF0.04068757385403605
aF0.03954784281585494
aF0.08470935041427664
aF0.059862652979171066
aF0.08147378808343565
aF0.14483542175936023
aF0.1585373993052493
aF0.19909554051811876
aF0.2688489334416109
aF0.3477701641090292
aF0.355269280975253
aF0.46674457118046075
aF0.6155502230417982
aF0.7074409278337689
aF0.7605407190595737
aF0.7565899063390983
asS'A4_y1.00_y1.20_fit'
p319
(lp320
F0.24928009390789463
aF-0.0011954901965107283
asS'A0_y4.50_y5.00_val_err'
p321
(lp322
F0.05659435603665835
aF0.041199815710255855
aF0.045486533017375555
aF0.05108085305926241
aF0.05948317637810455
aF0.06611646006097296
aF0.07207876652150463
aF0.08209984771022294
aF0.09212580796534109
aF0.10939542222822483
aF0.09293688932531442
aF0.11936279090249292
aF0.15267594296619583
aF0.18548383188553347
aF0.23140084458481494
aF0.20667433877236616
aF0.6787540244437356
aF1.685577210957404
aF0.0
aF0.0
asS'A1_y3.50_y4.00_fit'
p323
(lp324
F0.0
aF0.005685427728975456
aF0.0007141107768557156
aF-3.585578824005808e-05
aF4.213361660364832e-07
asS'A6_y1.60_y1.80_val'
p325
(lp326
F0.006527661791667937
aF-0.004474871016234782
aF0.018185864252519852
aF0.002348425683410542
aF0.009297559599295192
aF-0.018978127349452697
aF0.005610886695728848
aF0.008615254520302972
aF-0.004901784493727861
aF0.01005439962574456
aF-0.007026734812496284
aF-0.010209766122522257
aF0.024536107588604444
aF0.007853647951913175
aF-0.0031448479544122225
aF-0.007478753810424715
aF0.00616400794415259
aF-0.0407359152621827
aF-0.03634655647574087
aF0.13254070067093585
asS'A4_y1.60_y1.80_val'
p327
(lp328
F0.48752194593665416
aF0.45227284212415675
aF0.436899097535013
aF0.4270918698620192
aF0.4366297360604004
aF0.43387598742289185
aF0.42953847158535574
aF0.4160997791486264
aF0.4100240738965644
aF0.4300117280145482
aF0.4281380569139945
aF0.4128070556394513
aF0.4017384851682209
aF0.3817333785590598
aF0.4028736675523488
aF0.3569570184050875
aF0.30711942665453523
aF0.29467461627014035
aF0.254407146150237
aF0.2170202971638986
asS'A3_y1.40_y1.60_val'
p329
(lp330
F-0.016524290255164092
aF0.008010221062975947
aF-0.008112189488372364
aF-0.014240732669704655
aF-0.014808132672708444
aF0.017084000152564893
aF0.012819151265091163
aF0.003975063339529603
aF-0.005319335853352897
aF0.0024573272628413668
aF0.002614568730136982
aF-0.04736594718533164
aF-0.0010230356616904653
aF-0.0184019070376303
aF-0.00827389018453331
aF0.07381989965573885
aF0.17331369691773446
aF0.2512929691055567
aF0.3775788592001516
aF0.5963503251332333
asS'A2_y1.40_y1.60_val'
p331
(lp332
F-0.03166333515466021
aF0.0077767980678397994
aF0.0037056152660279403
aF0.0353179771992502
aF0.05093962612400403
aF0.10868924994331644
aF0.10329268211153456
aF0.08169399793634634
aF0.14392920747094068
aF0.11724512599678813
aF0.14031789361712005
aF0.20423185530082733
aF0.2812948167683584
aF0.27035894737560967
aF0.31567694775408167
aF0.42598602529360485
aF0.5376034204148369
aF0.7079161184360273
aF0.6625927079071964
aF0.8916928162720813
asS'A1_y3.50_y4.00_val_err'
p333
(lp334
F0.012742969890589002
aF0.008958267365362007
aF0.009263514957907431
aF0.010113859184940234
aF0.011010421423482988
aF0.012054420241252618
aF0.0131760776968144
aF0.014411083574272671
aF0.015812484249218196
aF0.017491317691770425
aF0.014357788419945589
aF0.016905484546632845
aF0.019906315520015934
aF0.023095652349855816
aF0.02718593738484816
aF0.0178681602156959
aF0.03443706013843745
aF0.06480651822508117
aF0.0993835504058785
aF0.3980745704945396
asS'A4_y1.40_y1.60_fit'
p335
(lp336
F0.40998111915509017
aF-0.005167602568037499
aF6.60116998282053e-05
asS'A0_y4.50_y5.00_fit'
p337
(lp338
F0.0
aF0.009206478885897165
asS'A4_y1.60_y1.80_fit'
p339
(lp340
F0.45473195833056734
aF-0.0018651974656262657
asS'A6_y4.00_y4.50_fit'
p341
(lp342
F0.0
asS'A3_y0.60_y0.80_val'
p343
(lp344
F0.001792276675031906
aF-0.035603445497302884
aF-0.012293547865403213
aF-0.018062370949921528
aF-0.023913033676140175
aF-0.017477252125710507
aF-0.034382053262257156
aF-0.040104004244175456
aF-0.02582328466193578
aF-0.03535049714299922
aF-0.03602063691915743
aF-0.04450070108724972
aF-0.04468161622517901
aF-0.016960313844247312
aF-0.03875681694350081
aF0.027453910691987996
aF0.07555019098136016
aF0.0760481323632201
aF0.17268616824073013
aF0.32618592703874344
asS'A6_y0.40_y0.60_val'
p345
(lp346
F-0.002048520222661634
aF-0.01687536415410181
aF0.003522026138716915
aF-0.018033726485975718
aF-0.0015916568940441667
aF0.0052510785418431
aF-0.005357293984689856
aF0.008560005745190823
aF0.00811111222860286
aF-0.01727965968663544
aF0.0018769956934803823
aF0.013809942780212215
aF0.011886908545950486
aF0.002438091931431411
aF0.004858067904484746
aF0.018600281961344348
aF0.024848606772721594
aF-0.0007040664918950331
aF0.024615730814752948
aF-0.09617223149677988
asS'A7_y0.80_y1.00_val_err'
p347
(lp348
F0.011828929728801325
aF0.008082978511814243
aF0.007948273227632667
aF0.008393372232410372
aF0.008979159070049588
aF0.009687072180327853
aF0.010268583958825619
aF0.01107135367674513
aF0.011979399472433538
aF0.012850215014920157
aF0.010181023941677421
aF0.011647575951799678
aF0.013050305207898993
aF0.014799585638670683
aF0.016747485709047716
aF0.010089375484658748
aF0.016140112750240073
aF0.024236048229687966
aF0.025969605173265443
aF0.05242269511898117
asS'A3_y1.60_y1.80_val'
p349
(lp350
F0.009749397316258786
aF-0.011432364766829703
aF-0.003945022701353182
aF-0.013778145451491959
aF0.019054858008466624
aF0.025797884136067692
aF0.024614281843805482
aF0.003263362225091763
aF0.007286497490184801
aF0.008134907583632245
aF0.0049915017993450266
aF-0.003109591641735128
aF-0.005103380166059424
aF0.01946228221252037
aF0.06490575114693074
aF0.10611331764988542
aF0.1988163279864873
aF0.26219972552897886
aF0.44987157017584484
aF0.5456661650597382
asS'A7_y1.40_y1.60_val_err'
p351
(lp352
F0.01212799425221613
aF0.008147708086712706
aF0.008034774633483576
aF0.008601577793796146
aF0.00916409488302989
aF0.009803799776447464
aF0.010552715750848934
aF0.011382317735707437
aF0.012242886779190046
aF0.013370347650839408
aF0.01047124286380427
aF0.011958135679284823
aF0.013561960108011011
aF0.015258244596490864
aF0.017099837671166445
aF0.010347828922186197
aF0.016718782837313737
aF0.024845710326252178
aF0.027264693170671865
aF0.05507790609722616
asS'A7_y3.00_y3.50_val_err'
p353
(lp354
F0.008763016836865823
aF0.006063143397198758
aF0.006122598428443275
aF0.006609679013495605
aF0.007141481132640063
aF0.0077462535587575695
aF0.008422536572990446
aF0.009050921659473955
aF0.009866326959695379
aF0.010871574770008689
aF0.008650219026091956
aF0.010121773404101815
aF0.011688241872615544
aF0.013509266598225605
aF0.01542556587913219
aF0.009761974009767221
aF0.017474230648084284
aF0.029411959850722164
aF0.03795485856770357
aF0.10374092348941501
asS'A0_y1.80_y2.00_fit'
p355
(lp356
F0.0
aF-0.0033637844155136876
aF0.0006072093023434481
aF-7.188993268517416e-06
asS'A7_y1.40_y1.60_fit'
p357
(lp358
F0.0
asS'A5_y0.20_y0.40_fit'
p359
(lp360
F0.0
asS'A7_y1.20_y1.40_val_err'
p361
(lp362
F0.011949913641063606
aF0.008127178474541606
aF0.008009501935679073
aF0.008519302630466564
aF0.009079960223433929
aF0.009737226179290973
aF0.010390659667030153
aF0.011223142310837996
aF0.012143425397424138
aF0.013067778186720603
aF0.010327226389659135
aF0.011804294060133063
aF0.01342127733007018
aF0.015112296721470951
aF0.016882678623613104
aF0.010177796307417757
aF0.016374471852877645
aF0.024293796730614905
aF0.026912853037975127
aF0.05358419043648988
asS'A3_y4.00_y4.50_val_err'
p363
(lp364
F0.016221370890321014
aF0.011614131002789588
aF0.01220345408956671
aF0.013584579889578965
aF0.015185324725974335
aF0.016625683981536087
aF0.018504911766513046
aF0.02069780592012353
aF0.023120603648299248
aF0.026375309893022357
aF0.021906184490605624
aF0.027616117553139273
aF0.03335232818605636
aF0.04098010701607703
aF0.049500443427927254
aF0.03686820262795783
aF0.08772622018794224
aF0.20423598568286977
aF0.42138582599687224
aF0.0
asS'A2_y0.80_y1.00_val_err'
p365
(lp366
F0.025856161545713973
aF0.017700428186989914
aF0.017403980497416774
aF0.018364900530664308
aF0.019637267079224065
aF0.021280547177908546
aF0.02251476867616273
aF0.024408474594131535
aF0.026629195991029867
aF0.028531223676858977
aF0.02268831754535235
aF0.02634599311090297
aF0.029687491181922588
aF0.03433866783349159
aF0.03817230523016888
aF0.023259675619309746
aF0.037809431353301295
aF0.0572972739144668
aF0.06307551367907788
aF0.12539273605392526
asS'A6_y0.60_y0.80_val'
p367
(lp368
F0.004672718369175924
aF0.009138066304787655
aF0.013470197147068992
aF-0.004483077411582179
aF-0.0002803509885473082
aF0.022437170128820367
aF-0.026377208759436877
aF0.007590707760530463
aF0.0076031621252356475
aF-0.010372315500349437
aF0.0020285108506244154
aF-0.0009091252137494257
aF0.012260475586266226
aF-0.0036668594330482034
aF0.018178819513442978
aF0.003170972871006663
aF-0.008465898564785093
aF0.036799544532899735
aF0.021529414232662965
aF0.018898585462648502
asS'A4_y0.80_y1.00_fit'
p369
(lp370
F0.19985770889045984
aF-0.0011621622418432412
asS'A3_y0.20_y0.40_fit'
p371
(lp372
F0.0
aF-0.004380501265475678
aF8.806510973975463e-05
asS'A3_y0.40_y0.60_val_err'
p373
(lp374
F0.011866659766763167
aF0.008064847143508861
aF0.007930860166018606
aF0.00837576244330912
aF0.008990179313925515
aF0.009599287281797686
aF0.010338788231376253
aF0.011151790395116162
aF0.011968671227748291
aF0.012919673536526026
aF0.01033214322806626
aF0.01194177158130837
aF0.013582634838009642
aF0.015492559674087438
aF0.017289562224301103
aF0.010529297486859088
aF0.01727969961012892
aF0.02596047301049494
aF0.02831101737652277
aF0.05859444941236038
asS'A6_y1.20_y1.40_val'
p375
(lp376
F0.006585254961673645
aF0.0036944755999106147
aF-0.014678052383265909
aF0.015471012562884625
aF-0.008626353512847483
aF0.008861742500656505
aF-0.010499157261565162
aF0.000556828862301534
aF0.029674379945315132
aF-0.013587089108302395
aF-0.006598849307263705
aF-0.015597191856679373
aF-0.012399260023540712
aF-0.004608716647489614
aF0.0018979880114134145
aF-0.01615861931364463
aF0.002142001960922003
aF-0.011677826344579543
aF-0.0005424017945689936
aF0.08020152171951336
asS'A0_y3.00_y3.50_fit'
p377
(lp378
F0.0
aF-0.00014251682177046643
aF0.00046013494473844466
aF-5.3932672300138e-06
asS'A5_y1.00_y1.20_val'
p379
(lp380
F-0.01313778088230344
aF-0.011888702716940085
aF0.008853296011915094
aF-1.940337436571622e-05
aF-0.003762154596530321
aF0.00890575402685827
aF-0.008015834770790136
aF0.0036109230886206
aF0.029756753287476186
aF0.004393018242590647
aF0.0005394210032001967
aF-0.0013826931989135258
aF0.021047856375165527
aF0.002745846986846956
aF0.04057288483383448
aF-0.005476331738270005
aF0.010887763957062103
aF-0.03874124919189018
aF-0.041390715165853804
aF0.023496079195307464
asS'A7_y1.00_y1.20_val_err'
p381
(lp382
F0.011898081842506559
aF0.008106812400339412
aF0.007994777710184196
aF0.00848412553641265
aF0.009091566924364887
aF0.009682795173513722
aF0.010411557910073848
aF0.011214504741402632
aF0.011995562517139097
aF0.013016809699407182
aF0.010233996141699385
aF0.011740619210927016
aF0.01333029200562205
aF0.015019362927034392
aF0.01663079370839033
aF0.010144178051043699
aF0.016359179764735027
aF0.0244219764699562
aF0.026208918511385303
aF0.05307242046563396
asS'A2_y0.40_y0.60_fit'
p383
(lp384
F0.0
aF0.008363908189086722
aF-0.000710851188041494
aF3.9382594335064694e-05
aF-5.086726812678227e-07
asS'A1_y1.40_y1.60_val_err'
p385
(lp386
F0.014657922314641005
aF0.009970370357724202
aF0.00982470062033432
aF0.010490654577044022
aF0.011267213757374698
aF0.012189028779406346
aF0.01302483621575037
aF0.014041859517188629
aF0.015136752651169648
aF0.016291752653491552
aF0.012773313295750514
aF0.014603064485837345
aF0.01664184388704329
aF0.018520918656685453
aF0.020716192057372924
aF0.0125636353710883
aF0.020074362303942914
aF0.03014135717798034
aF0.032548664859433966
aF0.06644639641313968
asS'A3_y0.60_y0.80_val_err'
p387
(lp388
F0.011895965449625004
aF0.00806648888760724
aF0.007917836599033801
aF0.008428453322018198
aF0.00904472990116738
aF0.009684781902035058
aF0.010382708985530908
aF0.01118577142112811
aF0.012068981214698939
aF0.01305160577765338
aF0.010346664449202849
aF0.011955328605277335
aF0.013628684851228822
aF0.015520809448640675
aF0.01738615717918156
aF0.010585673717221177
aF0.017269182130996225
aF0.026136196763648204
aF0.028375479075751574
aF0.05746335015717194
asS'A2_y1.60_y1.80_val_err'
p389
(lp390
F0.026351020922281317
aF0.018004268223704604
aF0.017810819811923135
aF0.01893836976838272
aF0.02031090386912741
aF0.02181229462779843
aF0.023555355847358052
aF0.02524085108532968
aF0.02730897208023174
aF0.030080015768991823
aF0.023554879443098673
aF0.02731535066191337
aF0.031471291221896555
aF0.03533081543424608
aF0.03962108628258913
aF0.024314142088776886
aF0.0397929169591629
aF0.060805195662152534
aF0.06651644312491048
aF0.13579597159385964
asS'A1_y0.60_y0.80_val_err'
p391
(lp392
F0.014551954892287906
aF0.009848612463548989
aF0.009678517963350293
aF0.010275988365512433
aF0.010992925908708586
aF0.01179158391397875
aF0.012618262668043416
aF0.01353896151420146
aF0.014649191632848687
aF0.015783772602249897
aF0.012357683329077575
aF0.014090856689937058
aF0.015949337858143318
aF0.017853696396708703
aF0.019976874683447877
aF0.012029060525950437
aF0.0191569178982583
aF0.02867872069369252
aF0.0306443826088716
aF0.062084780998022435
asS'A6_y1.60_y1.80_fit'
p393
(lp394
F0.0
asS'A1_y4.00_y4.50_val'
p395
(lp396
F0.06819678192231717
aF0.013674112974515498
aF0.047376769712369184
aF0.07023151483481725
aF0.07813387141648676
aF0.11723811518031363
aF0.13865238255171086
aF0.14171077451631095
aF0.1726296319899926
aF0.25786739134937214
aF0.1803906456274136
aF0.21556687634325042
aF0.17555604346888
aF0.27381659030233224
aF0.22454682359834027
aF0.3557731985608694
aF0.4416911955472897
aF0.4955115301944464
aF0.4529653121274926
aF0.0
asS'A6_y3.50_y4.00_val_err'
p397
(lp398
F0.01280069830115354
aF0.008974118506715853
aF0.009188587188821422
aF0.010072028989190606
aF0.010915262517575745
aF0.011887788628423351
aF0.01297971292612823
aF0.014208220020321297
aF0.015650290592600626
aF0.017009831623612158
aF0.014028802325344559
aF0.016469965991161073
aF0.01934438458814265
aF0.022338786243335438
aF0.026218817313996265
aF0.017092367390208866
aF0.032753629499716136
aF0.06026132662161934
aF0.0918795622687322
aF0.31746444371656435
asS'A0_y1.00_y1.20_val'
p399
(lp400
F-0.008569725149867468
aF-0.004369664311721636
aF0.014684777590329849
aF-0.004394784908941356
aF0.01636584769014762
aF0.012312720341845844
aF0.04879883427105441
aF0.07250744928670987
aF0.09962389777940248
aF0.10207638455090093
aF0.15876888622868507
aF0.1958594521341559
aF0.24853654941387485
aF0.3341237061757382
aF0.36874598203723086
aF0.47083121717446047
aF0.6322070637685271
aF0.7488502138823192
aF0.8143718972298558
aF0.921337743746835
asS'A6_y1.80_y2.00_val_err'
p401
(lp402
F0.01477668930268756
aF0.01007429573711397
aF0.009983284197677458
aF0.010610078715369519
aF0.011464037210022792
aF0.01225076647296293
aF0.01311672244030981
aF0.01405402315820856
aF0.015247741883578943
aF0.016391311111632768
aF0.012952403122235858
aF0.014697200326226617
aF0.016616495050319143
aF0.01855189709683142
aF0.020825591808436707
aF0.012439614196932559
aF0.020030465909128218
aF0.029326653330377518
aF0.03253726526624755
aF0.06570849740176604
asS'A7_y1.80_y2.00_fit'
p403
(lp404
F0.0
asS'A4_y2.00_y2.50_fit'
p405
(lp406
F0.7418756125227041
aF-0.0035242072730152993
asS'A2_y3.50_y4.00_fit'
p407
(lp408
F0.0
aF0.002414668085153171
aF0.0004253802651876283
aF-5.695471557762082e-06
asS'A1_y1.00_y1.20_fit'
p409
(lp410
F0.0
aF0.00487841407793968
aF0.0005062784720395886
aF-2.8648303401795618e-05
aF3.4299244141502575e-07
asS'A3_y3.50_y4.00_val_err'
p411
(lp412
F0.010491484421124119
aF0.0073785627467315715
aF0.007622293466454571
aF0.008334854523194324
aF0.009109510319604393
aF0.00994094034089534
aF0.010893954096943981
aF0.012044053339736994
aF0.01319709296377396
aF0.014739039555609785
aF0.012154184865561506
aF0.014516557644902308
aF0.01723653870141078
aF0.020320122839646626
aF0.02422015793795093
aF0.01638370564791735
aF0.032996628107825283
aF0.06418613220582345
aF0.10370460235615295
aF0.42441208992351354
asS'A5_y2.00_y2.50_val_err'
p413
(lp414
F0.00850634309415698
aF0.005846181726105977
aF0.00580783635473091
aF0.0062145861249193884
aF0.006652151652853365
aF0.007190281325552594
aF0.007753368478146867
aF0.00833657745687094
aF0.009067319588450501
aF0.009810708710034194
aF0.007803778160047271
aF0.009024175001430688
aF0.010314173609064196
aF0.011730611212899448
aF0.013241745004285377
aF0.00814765076729698
aF0.013613745036532532
aF0.02086809196583283
aF0.023794159468999855
aF0.051733737339927116
asS'A5_y0.00_y0.20_fit'
p415
(lp416
F0.0
asS'A4_y2.50_y3.00_fit'
p417
(lp418
F1.048148906471011
aF-0.0056680395853751855
asS'A1_y1.20_y1.40_fit'
p419
(lp420
F0.0
aF0.014542849479521336
aF-0.0004934414790721507
aF4.575559419830598e-06
asS'A7_y4.00_y4.50_val_err'
p421
(lp422
F0.016179836152413772
aF0.011574240115840843
aF0.012135303250230314
aF0.013493408364574987
aF0.01499192452683886
aF0.016469817526109935
aF0.01805306555982873
aF0.020311015882115643
aF0.02252149000738649
aF0.025230815909931103
aF0.020820778024991486
aF0.026266265847137014
aF0.030635876013397713
aF0.037129251530079614
aF0.04550481327556499
aF0.03178953101497973
aF0.07633214145275176
aF0.17070725374222148
aF0.32268362222520774
aF0.0
asS'A0_y1.00_y1.20_val_err'
p423
(lp424
F0.017000784014917916
aF0.0115418733083421
aF0.011322668244341711
aF0.012098514422029983
aF0.012918097521503333
aF0.013804118969134084
aF0.014838970257767387
aF0.015869031314424156
aF0.01700191802220241
aF0.018348523953256132
aF0.014453695143387168
aF0.01665535256101555
aF0.018822443285481834
aF0.021190378025268967
aF0.023670827037376472
aF0.014225035211979205
aF0.02296038724824036
aF0.03475156046944177
aF0.037819071889180426
aF0.07647790648867656
asS'A4_y2.50_y3.00_val'
p425
(lp426
F1.0538727720776346
aF1.0497196856763997
aF1.010425465177723
aF1.0048826213946276
aF0.9936630442249276
aF0.9746977726681381
aF0.9667588705665261
aF0.958542229277368
aF0.9348516089062644
aF0.951612361593867
aF0.921634456943291
aF0.9141160418450588
aF0.8807373528918545
aF0.8674091012425008
aF0.8345359889544401
aF0.7637387267659526
aF0.6345463615178737
aF0.5455584963396898
aF0.47904603393568357
aF0.3788711553333258
asS'A1_y1.40_y1.60_val'
p427
(lp428
F0.02425879213749318
aF0.02585139374268921
aF0.046023285150555544
aF0.06781937847602611
aF0.10916249931783413
aF0.10409983483759196
aF0.10645912606133719
aF0.17224609094965812
aF0.13845253440228275
aF0.1430904081667087
aF0.14836647395623156
aF0.1329162526140362
aF0.10627301845984141
aF0.1155346018891027
aF0.03834761090691898
aF0.06717723366157831
aF0.06051424494938013
aF0.05040449791773203
aF0.08979464026016529
aF0.08133656536519374
asS'A1_y3.00_y3.50_fit'
p429
(lp430
F0.0
aF0.0028780132007071167
aF0.0016377048185574944
aF-0.0001199489856956635
aF3.0153200651844414e-06
aF-2.534621999966367e-08
asS'A3_y3.00_y3.50_fit'
p431
(lp432
F0.0
aF0.006337359958240361
aF0.001244243077740846
aF-9.366811721056813e-05
aF2.4018908097937997e-06
aF-2.005911671496634e-08
asS'A7_y1.40_y1.60_val'
p433
(lp434
F0.0014040887685648742
aF0.005929599871326344
aF-0.0025917471949742825
aF0.0009048180163756765
aF-0.005631382135816415
aF-0.018120194611676455
aF-0.007105476039742746
aF-0.004832349242880726
aF-0.024589836650364367
aF0.020653317373859406
aF0.007628460512042297
aF0.004061969413605089
aF-0.005371393361359795
aF0.0004545776584408116
aF-0.013445517672692248
aF-6.541724375082316e-05
aF0.04719995372566266
aF-0.022231593772287502
aF-0.03268389659568072
aF-0.10673002981568681
asS'A6_y0.20_y0.40_fit'
p435
(lp436
F0.0
asS'A4_y0.00_y0.20_fit'
p437
(lp438
F0.015346159001624948
asS'A5_y0.60_y0.80_val_err'
p439
(lp440
F0.012903967595464323
aF0.008807788603507796
aF0.00861048502068635
aF0.009179796682701505
aF0.009828216685056238
aF0.010495507786421809
aF0.01127031785113237
aF0.012099714572483477
aF0.01303838172304042
aF0.014004320903483131
aF0.011182885638944933
aF0.012930243862800922
aF0.01456822689534727
aF0.016585965853089194
aF0.018622671022455888
aF0.011377925135583406
aF0.018644238340259047
aF0.028113132547552804
aF0.03001036329699498
aF0.060498432317291864
asS'A7_y0.20_y0.40_val_err'
p441
(lp442
F0.011891989851499484
aF0.008080111961323268
aF0.007901969229115279
aF0.008331801362516062
aF0.00889397429020215
aF0.009507951800182525
aF0.010213743724495112
aF0.010951498466177429
aF0.011738297188406906
aF0.012764191491315562
aF0.01003544436553634
aF0.011450519490551286
aF0.012921604086570596
aF0.014646992966893677
aF0.01641379095741396
aF0.00987960305923174
aF0.015901036332033467
aF0.02345758548842299
aF0.025524530555535063
aF0.05090770328059925
asS'A3_y3.00_y3.50_val_err'
p443
(lp444
F0.00874493812996753
aF0.006061410141252324
aF0.006154373495827554
aF0.00663372246961186
aF0.007234315350188148
aF0.007838946542477847
aF0.008537748414399051
aF0.009241305546670962
aF0.010093198657756042
aF0.011219457625714245
aF0.008976709160678505
aF0.010624982983306787
aF0.012332950175198486
aF0.014297853340301626
aF0.016647474022878056
aF0.010621181777161258
aF0.019863470979705
aF0.03417980060746258
aF0.04600454864200048
aF0.13153786994820024
asS'A5_y1.80_y2.00_fit'
p445
(lp446
F0.0
asS'A5_y2.00_y2.50_val'
p447
(lp448
F0.009439470732426247
aF0.005346117164582196
aF0.0010820023201074762
aF0.013291465429335663
aF0.011054823172405089
aF-0.0013588319370924234
aF-0.0011492306466985812
aF0.002997827456107105
aF0.0024056247496913896
aF0.01563990393006181
aF0.007274335000292885
aF-0.008151134636141715
aF0.006554440475194456
aF-0.025174872760425637
aF0.002765452855250422
aF-0.013253970905274708
aF-0.024573247126613962
aF0.014555137948318071
aF-0.013538864636322742
aF-0.025578380510043193
asS'A2_y3.00_y3.50_fit'
p449
(lp450
F0.0
aF0.0007458148858655034
aF0.0005593329622505545
aF-8.099458102293856e-06
asS'A1_y1.80_y2.00_val_err'
p451
(lp452
F0.014788665935978858
aF0.010139261100913215
aF0.010043245791717722
aF0.01070609119749995
aF0.0115464966436945
aF0.012360218124493963
aF0.013203134536772188
aF0.014284241653316232
aF0.015443069004741445
aF0.016801377668930792
aF0.013208766906778843
aF0.015117662517153465
aF0.01727149708098691
aF0.019223092832162322
aF0.021486722407983782
aF0.01300854548208516
aF0.021077609523254288
aF0.03152548855714319
aF0.03527373294478086
aF0.07248248863958902
asS'A6_y1.40_y1.60_val_err'
p453
(lp454
F0.014823934792815883
aF0.009956845197165427
aF0.009809774787948228
aF0.010458723443800163
aF0.011157921477367282
aF0.01200094828299137
aF0.012834313566050219
aF0.01378516037532339
aF0.014799742717852185
aF0.015997318300676567
aF0.01254026999447454
aF0.014287126280014172
aF0.016131963244751146
aF0.01806047474401713
aF0.020209911618179414
aF0.012020965909791962
aF0.019014454283393423
aF0.02815989868883483
aF0.030562807832058874
aF0.06088814890419458
asS'A5_y4.50_y5.00_fit'
p455
(lp456
F0.0
asS'A6_y1.00_y1.20_val_err'
p457
(lp458
F0.014505945855632882
aF0.009877951684569352
aF0.009732120115535932
aF0.010324995648570133
aF0.011085480760611496
aF0.011779101041241002
aF0.012650944343607676
aF0.013554364959643397
aF0.01449228375539961
aF0.01569199372536254
aF0.012333043148845304
aF0.014075009003945177
aF0.015794854660296634
aF0.01787876899554037
aF0.019510170432929113
aF0.011815046175089529
aF0.01857037603266466
aF0.027456027149395483
aF0.029034383961826362
aF0.05889511710909532
asS'A5_y0.40_y0.60_fit'
p459
(lp460
F0.0
asS'A7_y0.60_y0.80_val_err'
p461
(lp462
F0.011873683672187094
aF0.00807024191031298
aF0.007906459537020696
aF0.008377756141999163
aF0.00898572495542264
aF0.009605389453294713
aF0.010250625456190139
aF0.011012451127248982
aF0.011886658624390827
aF0.012735148410838006
aF0.010072301950251036
aF0.011605269514337649
aF0.012999492472300669
aF0.014700202632428086
aF0.01649204566022109
aF0.009972507476338247
aF0.015996278687876984
aF0.023815852733523418
aF0.025314291337050068
aF0.05108758294944275
asS'A2_y0.40_y0.60_val'
p463
(lp464
F0.00740890666108526
aF0.029521021393232344
aF0.047531806276233664
aF0.0480716861577346
aF0.050907933523801414
aF0.03596029263426252
aF0.03028950723075659
aF0.030903198652519486
aF0.10405895706002002
aF0.10778348786003439
aF0.12958191256356386
aF0.2408866683194119
aF0.2906738181279063
aF0.3485792877268223
aF0.3063333757721818
aF0.3894052797460366
aF0.5304281179476555
aF0.6445111853582662
aF0.6779827612173668
aF0.9021808079002862
asS'A0_y1.20_y1.40_fit'
p465
(lp466
F0.0
aF-0.004473921215473908
aF0.0007091928052386735
aF-8.994485094134338e-06
asS'A5_y1.60_y1.80_val'
p467
(lp468
F0.016953673220922744
aF-0.0066705771179587725
aF-0.0005763863583907899
aF0.014854295716170791
aF-0.004646885982081562
aF0.012951812670382151
aF0.007532747104514112
aF0.00035829965182893487
aF-0.0026146961389835626
aF0.02615008385223581
aF-0.00971900895361346
aF0.002001302340511509
aF0.02739631379398183
aF-0.011395236402775368
aF-0.033284868088027164
aF0.010432687819736953
aF0.03940325072072802
aF0.00648876001875794
aF-0.021273187199744255
aF0.033669792566446435
asS'A0_y0.00_y0.20_fit'
p469
(lp470
F0.0
aF-0.005005939248437202
aF0.0006888642888168272
aF-8.279712440297844e-06
asS'A1_y2.50_y3.00_fit'
p471
(lp472
F0.0
aF0.004486249692584822
aF0.0015238745344940577
aF-0.0001202575844432342
aF3.097925873866811e-06
aF-2.6334251534249084e-08
asS'A6_y0.00_y0.20_fit'
p473
(lp474
F0.0
asS'A1_y1.60_y1.80_fit'
p475
(lp476
F0.0
aF0.016277854987581386
aF-0.0006181654592646406
aF6.601096121538775e-06
asS'A7_y3.50_y4.00_val'
p477
(lp478
F-0.025394014711171076
aF0.011038541312835543
aF0.013405309335178443
aF0.008239089600989478
aF-0.0005127377905332195
aF0.010766794630025051
aF0.004255003010445679
aF-0.00017699693932702362
aF-0.0052818785542073105
aF0.0051704280365555055
aF-0.010073659072162523
aF-0.0018992311041000746
aF-0.03246302626321732
aF-0.005533303152458132
aF-0.01494312482580788
aF-0.013059237189048214
aF0.01955741533318662
aF-0.12629268833009158
aF-0.13086760040662895
aF0.23413622710273574
asS'A2_y4.00_y4.50_val_err'
p479
(lp480
F0.03539574494861658
aF0.025234566491481116
aF0.026475946291054132
aF0.029636380483637734
aF0.032976351171771424
aF0.03617995669856341
aF0.039982736000851546
aF0.04490235693554531
aF0.049639085019248276
aF0.05682785385441191
aF0.04741304230091046
aF0.059403759559996654
aF0.0708786516395747
aF0.08650896784883377
aF0.1059038496253363
aF0.07541191921838128
aF0.17516730473584446
aF0.3807993340156112
aF0.803495751969064
aF0.0
asS'A1_y0.20_y0.40_fit'
p481
(lp482
F0.0
aF0.0035505159458801283
aF-6.652604184812384e-05
asS'A6_y1.40_y1.60_fit'
p483
(lp484
F0.0
asS'A0_y3.50_y4.00_fit'
p485
(lp486
F0.0
aF0.0004021881136051786
aF0.00044993376091340305
aF-5.246709363338018e-06
asS'A2_y0.80_y1.00_val'
p487
(lp488
F0.03401949985986361
aF0.036057775474408645
aF0.025840835092203744
aF0.02624254114243623
aF0.011186975454404792
aF0.023678371619881677
aF0.050846705766714566
aF0.08328733402540493
aF0.1204235199153366
aF0.11114183661478692
aF0.17710901989814265
aF0.2536750006531359
aF0.3231707618796224
aF0.3894174431036989
aF0.3033684195079399
aF0.3934943143941085
aF0.5444931292144392
aF0.5654501517271809
aF0.8180298607494967
aF0.7148386989165625
asS'A3_y0.80_y1.00_val'
p489
(lp490
F0.016030029575906844
aF-0.018165051675146454
aF-0.010618112550433061
aF-0.01573589147222345
aF-0.019370861078698728
aF-0.015567634429493781
aF-0.008568107821212381
aF-0.02795577705188148
aF-0.032493297190938096
aF-0.020946325525150307
aF-0.042817502810844815
aF-0.07149869703753547
aF-0.04987188595948042
aF-0.027996323689507642
aF-0.009017431796812494
aF0.007344383774270082
aF0.04886221905119235
aF0.1240974447641131
aF0.1875350097747902
aF0.3142732475614903
asS'A2_y4.50_y5.00_val_err'
p491
(lp492
F0.08652824648296896
aF0.06363741580496358
aF0.07106128622486584
aF0.07816650194850973
aF0.09010348237715149
aF0.10303039044801221
aF0.11152091486300825
aF0.1284025749357678
aF0.15087549026337488
aF0.17427271223886087
aF0.1519094152860812
aF0.1916030994591386
aF0.2596707234873846
aF0.2919295459826807
aF0.40241991129443
aF0.3450981855293995
aF1.0544238016755498
aF2.7619921202318585
aF0.0
aF0.0
asS'A0_y0.60_y0.80_val'
p493
(lp494
F-0.009877996439011253
aF0.003225149381754967
aF-0.011663051825445877
aF-0.009870446852858254
aF0.013049683198024447
aF0.019729893363262543
aF0.031893231142968465
aF0.06845165656070246
aF0.05993527382566489
aF0.09444599007952029
aF0.14522501684529338
aF0.22636352765627774
aF0.24905496202707253
aF0.3400652969322878
aF0.34502657654911223
aF0.4636216680470833
aF0.6183405776050055
aF0.6783744733755814
aF0.765724086532166
aF0.7824522488792235
asS'A5_y0.80_y1.00_fit'
p495
(lp496
F0.0
asS'A1_y3.50_y4.00_val'
p497
(lp498
F0.02493624142449343
aF0.016694887949393968
aF0.031875491623500604
aF0.07377034385604055
aF0.07606234634832455
aF0.1016223680827939
aF0.14315103877493535
aF0.17461804144944854
aF0.16031545502622788
aF0.16121248309608355
aF0.17229680993490518
aF0.19383792668956912
aF0.1900035914026075
aF0.15750843054664004
aF0.1859781521777524
aF0.21919676622670528
aF0.281203881614672
aF0.3736226862918581
aF0.501636952533868
aF0.17375382420382876
asS'A3_y2.50_y3.00_val'
p499
(lp500
F0.011589141341866829
aF0.012814675490929303
aF0.0428099804001511
aF0.05669807270272715
aF0.07815583661059106
aF0.09345696190590815
aF0.10879048167797403
aF0.10871960621861523
aF0.12752065196311765
aF0.13011649636622188
aF0.12961873404991342
aF0.12919847119086114
aF0.1367550498784977
aF0.16103223791222201
aF0.2252951916009746
aF0.3457108055608486
aF0.4946860127192864
aF0.6864751740389887
aF0.904704501220556
aF1.0867963465495694
asS'A4_y4.50_y5.00_val_err'
p501
(lp502
F0.054172141451950054
aF0.040206139788320806
aF0.04452722931212715
aF0.04994983795914004
aF0.05849731334327275
aF0.06443142456986745
aF0.07032321261151032
aF0.07892394674844166
aF0.09127518278214336
aF0.10826632753629546
aF0.08523394028341673
aF0.10499888676192788
aF0.13316676108877584
aF0.16618549584218337
aF0.207606149555242
aF0.18002004190390325
aF0.5447026365987289
aF1.2756200932221557
aF0.0
aF0.0
asS'A2_y0.20_y0.40_val_err'
p503
(lp504
F0.025995379729732843
aF0.017667717387694
aF0.01723077506401366
aF0.01820593809419546
aF0.01948296703332612
aF0.02082789407881258
aF0.022500779166998032
aF0.02414396776104304
aF0.02591458651697364
aF0.028324116316003085
aF0.02227133932648872
aF0.02579647462259778
aF0.029496074842754627
aF0.03339261853119482
aF0.03748056320737786
aF0.022918232823622247
aF0.03725787105938202
aF0.05608671730161479
aF0.061609278237711854
aF0.12313693225243459
asS'A5_y0.00_y0.20_val_err'
p505
(lp506
F0.012941191029494974
aF0.00876692129207808
aF0.00858463713597537
aF0.009072845210529467
aF0.009694499108713995
aF0.010437859561280672
aF0.011124752851454362
aF0.011931779997436972
aF0.012952432953522861
aF0.013975015726286753
aF0.011041617435000728
aF0.01273251465197551
aF0.014504913422930489
aF0.01642306853229069
aF0.018217339999547656
aF0.01132861652649811
aF0.018371513563379578
aF0.02772684817522888
aF0.03020859662762691
aF0.05896160139067242
asS'A4_y0.40_y0.60_val'
p507
(lp508
F0.12190852614746756
aF0.10995420871437411
aF0.10148534338933977
aF0.11979173564002835
aF0.09080287469785779
aF0.087944290737081
aF0.0909936845324113
aF0.09755945395121164
aF0.09832983575528165
aF0.06174416077642097
aF0.08878031133365659
aF0.10028816958960193
aF0.11309478012133901
aF0.05223340069805702
aF0.07307620249093694
aF0.0775679882528847
aF0.07878068303257099
aF0.0516024042410314
aF0.09160920689756528
aF0.018102589708612237
asS'A2_y1.00_y1.20_val'
p509
(lp510
F-0.0006907765461616183
aF0.010998176564407472
aF-0.019313314578394268
aF0.005178895904057182
aF0.013121303258226007
aF0.038262110105746795
aF0.07787995977634295
aF0.06050459462579341
aF0.1096715828547923
aF0.07716901788912615
aF0.1746686867563441
aF0.26024044474499475
aF0.2227300195073226
aF0.35283810857907855
aF0.38569756945993633
aF0.3754373797439399
aF0.4760705441352243
aF0.610652653738221
aF0.786524811942968
aF0.8416455132958257
asS'A2_y1.20_y1.40_fit'
p511
(lp512
F0.0
aF0.007126742556153615
aF4.4332815748362314e-05
asS'A6_y2.50_y3.00_val_err'
p513
(lp514
F0.009885518229944544
aF0.006786423393978155
aF0.006785228149383092
aF0.007235854635388569
aF0.007794375047813636
aF0.008394504216056056
aF0.009038043536195932
aF0.009786559713757857
aF0.010508432815236095
aF0.01140895205890053
aF0.009078768720648334
aF0.01038044880924072
aF0.01184017738254335
aF0.013537419842412171
aF0.015160436795932942
aF0.009221959360949867
aF0.015360644217860295
aF0.02359140534881086
aF0.027839000791936085
aF0.06363603591472358
asS'A2_y0.60_y0.80_val'
p515
(lp516
F0.011482414844630336
aF-0.00356563878573692
aF0.00852554392042546
aF0.03595260449770913
aF0.0391456505599427
aF0.04936277572394312
aF0.07650021687989723
aF0.09380416909379943
aF0.0919225253350572
aF0.14881804722836017
aF0.1643563883717649
aF0.18406762667854387
aF0.2939640754763083
aF0.34442593354802453
aF0.33382769795919115
aF0.3848890406580413
aF0.5024665180856513
aF0.6158897736377237
aF0.7524937861436196
aF0.7370212364793656
asS'A6_y1.60_y1.80_val_err'
p517
(lp518
F0.01470576552040628
aF0.010080199268991771
aF0.009927333786588883
aF0.010584143025955003
aF0.01132907755046815
aF0.012066596234426338
aF0.01298487540117051
aF0.013926295243079692
aF0.014962647850267446
aF0.01632228975782793
aF0.01274134945037124
aF0.014497334494023175
aF0.016288095627556433
aF0.018305723764096483
aF0.020354226532551218
aF0.012192224133239732
aF0.019595705153351742
aF0.028871491145816806
aF0.031387059927232876
aF0.06344891805945327
asS'A6_y0.80_y1.00_fit'
p519
(lp520
F0.0
asS'A7_y0.80_y1.00_fit'
p521
(lp522
F0.0
asS'A6_y1.80_y2.00_fit'
p523
(lp524
F0.0
asS'A7_y0.80_y1.00_val'
p525
(lp526
F-0.011366236547906122
aF0.007610438648145626
aF0.014721815671612177
aF-0.0005138928583935923
aF-0.003009760833598219
aF0.0014291208786422537
aF0.013783571766968488
aF0.007072963569353807
aF0.010233724936692234
aF0.007614854116891276
aF0.01592362760054753
aF0.003546706404759718
aF-0.0033133165778355123
aF0.0015551391871369991
aF-0.008903273488751022
aF-0.003990076912135694
aF0.01934837632936018
aF0.008236939552442715
aF0.027675659887157516
aF0.0038499570010377517
asS'A7_y1.60_y1.80_val_err'
p527
(lp528
F0.012005273378490782
aF0.008261106707493632
aF0.008150057798167323
aF0.008663675275171296
aF0.009278115655848778
aF0.009925336205047935
aF0.010705254545813616
aF0.011466285543178105
aF0.012359114936420175
aF0.01346280273348672
aF0.010569476534090749
aF0.012116693788023172
aF0.013795834888127037
aF0.015486106875037764
aF0.01724389709148216
aF0.010519234468203886
aF0.017098440138870522
aF0.025573339239085113
aF0.02819780010100443
aF0.05706095229398968
asS'A3_y4.00_y4.50_val'
p529
(lp530
F0.03944766138339599
aF0.047883911042232184
aF0.08600222072121273
aF0.1431511608574993
aF0.15158268951535434
aF0.21645223620745235
aF0.24624932356281176
aF0.2600686774116766
aF0.29568046351076627
aF0.3457742348400612
aF0.30246481965068084
aF0.3840146500786637
aF0.392298932219801
aF0.5076800625984995
aF0.48941874749299363
aF0.8045152156291465
aF1.12933888069439
aF1.1840228591137592
aF1.4825926970535304
aF0.0
asS'A7_y4.00_y4.50_fit'
p531
(lp532
F0.0
asS'A1_y2.00_y2.50_val_err'
p533
(lp534
F0.009520472675594777
aF0.0065315615305099285
aF0.0064810584675088646
aF0.006941359433536867
aF0.007461892787742422
aF0.008044844496026812
aF0.00866833691167442
aF0.009301350047708315
aF0.010109091328276578
aF0.010974129212830436
aF0.008650909869245106
aF0.009865085786559213
aF0.011265261803762272
aF0.01268306223252588
aF0.014294467620811897
aF0.008626740766193792
aF0.014117131440482414
aF0.021289251737168807
aF0.024480847688051446
aF0.05272307892304408
asS'A5_y2.00_y2.50_fit'
p535
(lp536
F0.0
asS'A1_y3.00_y3.50_val_err'
p537
(lp538
F0.010686068425376465
aF0.007384790698111758
aF0.007476765801420194
aF0.00805536550229423
aF0.008759819396861275
aF0.009503610402192332
aF0.01031768868953196
aF0.011162207958018821
aF0.012105268833256095
aF0.013332157375532883
aF0.01066617975218394
aF0.012505988010704539
aF0.014283079125918854
aF0.016416735110665145
aF0.018880175030826975
aF0.011824792744161951
aF0.02122746951325536
aF0.03544864368302121
aF0.04582198437829221
aF0.1242335400672774
asS'A6_y3.50_y4.00_val'
p539
(lp540
F-0.012193776115628907
aF-0.010294525915800752
aF-0.0022687782327606336
aF0.016908930479545465
aF0.012181365307843448
aF0.016972076602776363
aF0.011657639416179455
aF0.011202184691531501
aF-0.008138828264370835
aF0.014496741917668714
aF-0.010380354890173936
aF0.020059195237231403
aF0.0028823337589181704
aF0.024944874399633596
aF0.026588445144271364
aF-0.013526612891862294
aF0.023662172507007813
aF-0.11259751090633535
aF0.10867973411011903
aF-0.40934142104546645
asS'A4_y3.00_y3.50_val'
p541
(lp542
F1.3289155084706323
aF1.3238212530948137
aF1.2900931639052957
aF1.2715001798229275
aF1.2537739430306727
aF1.2686386504128448
aF1.2134745102416549
aF1.238843035183117
aF1.2142708499363088
aF1.2007955864629682
aF1.1826060701791383
aF1.1620819639990205
aF1.135954905081105
aF1.0745749097309936
aF1.0304891640169866
aF0.9580587411673791
aF0.8344321557019182
aF0.7513481611612857
aF0.6307245457209958
aF0.6344711302684797
asS'A7_y0.00_y0.20_val_err'
p543
(lp544
F0.011854121872658344
aF0.008025046319225045
aF0.007868875200100234
aF0.008297615765178913
aF0.008888009713711781
aF0.0095063490614097
aF0.010200048314190033
aF0.010908525198392768
aF0.01177621073642392
aF0.012720934422577983
aF0.00999236325012279
aF0.011470862864907031
aF0.012983716249358682
aF0.014570715143624015
aF0.016184742385476188
aF0.009895442467024994
aF0.01574040956185622
aF0.023573534715043955
aF0.025419648436829617
aF0.0496540522352735
asS'A2_y1.40_y1.60_val_err'
p545
(lp546
F0.026501760072202847
aF0.01771976630981367
aF0.01759145261435967
aF0.018843500841992013
aF0.020047699864160464
aF0.021603046016604385
aF0.023307046515451138
aF0.025079961769636366
aF0.027230423827903413
aF0.029694223488623613
aF0.023278312025520675
aF0.026858381769322877
aF0.03081980821697318
aF0.034499638138942454
aF0.039293455425409615
aF0.023954993145573828
aF0.039200443402643836
aF0.05969689028422725
aF0.06520548311845574
aF0.1368826017334942
asS'A7_y3.00_y3.50_val'
p547
(lp548
F0.019912248849250743
aF0.0011626396567556662
aF0.005903259047956351
aF0.007850514451230141
aF0.0077357133759982455
aF0.007247178531641098
aF-0.0008939327219514957
aF-0.011029756933054923
aF0.010903496353043907
aF0.0029836662984663574
aF0.012357986878707308
aF-0.00462548201210719
aF-0.004734696185243434
aF-0.0029405231855128638
aF0.01885021084632748
aF0.010729340629359185
aF-0.0015918406364870271
aF-0.017937631706413198
aF0.053186566301773
aF0.03473345069542505
asS'A7_y0.00_y0.20_fit'
p549
(lp550
F0.0
asS'A6_y0.60_y0.80_val_err'
p551
(lp552
F0.014491899405170181
aF0.009827956680653557
aF0.009649902328086445
aF0.010243244008101086
aF0.010938000315373798
aF0.011708784097449142
aF0.012444326319830409
aF0.013302157482555943
aF0.014389390758345943
aF0.015412903730599899
aF0.012083466794421712
aF0.013827360672434124
aF0.01548950231822465
aF0.01728422427511633
aF0.019500437474030324
aF0.011575373017888428
aF0.0181635805038452
aF0.026972977459613877
aF0.028348876158893397
aF0.0572399518772072
asS'A0_y0.20_y0.40_val_err'
p553
(lp554
F0.016934547593766548
aF0.011499900639803709
aF0.011269671403189642
aF0.011891216751425616
aF0.0127220390410407
aF0.013601716263329983
aF0.014531604982805695
aF0.015624134227378076
aF0.01676768180403403
aF0.018155592708840238
aF0.014202686460654012
aF0.01622618536287973
aF0.018352356710192377
aF0.020898009686811655
aF0.023102664573512004
aF0.014008265813056201
aF0.022493931806090828
aF0.0334230002393408
aF0.03675706989223788
aF0.07251194790863573
asS'A6_y2.50_y3.00_val'
p555
(lp556
F0.014094017325119163
aF0.0064296013512884585
aF-0.0067106691580653645
aF-0.00027258984555015203
aF-0.0029067070259717804
aF-0.01429682982531307
aF-0.011326180711587312
aF-0.012060422439185635
aF0.0017679716761431798
aF0.007811727482220847
aF0.018419293217069598
aF-0.00926407360641446
aF-0.015030323617130083
aF-0.015683034103182215
aF-0.0089851946655621
aF-0.005957764506322522
aF-0.01739944672943904
aF-0.009039818577659672
aF0.03529826063825967
aF-0.020509100720262203
asS'A3_y4.50_y5.00_fit'
p557
(lp558
F0.0
aF0.0171903079531176
asS'A0_y3.50_y4.00_val'
p559
(lp560
F0.010220375166136773
aF0.019207363889498442
aF0.01690818835957954
aF0.021741549274349615
aF0.05115248973964946
aF0.027507041762642796
aF0.0719114927208285
aF0.09017790419011608
aF0.09392087503263277
aF0.1347986746346123
aF0.16209291511589052
aF0.24207736493905796
aF0.2609570964178094
aF0.3584832797117048
aF0.37197107955761166
aF0.4859779063000941
aF0.6341500980522248
aF0.6910693670077426
aF0.8713726776738482
aF0.7426229075799387
asS'A7_y0.40_y0.60_val_err'
p561
(lp562
F0.011852546687657265
aF0.008025247280600242
aF0.007868308318512022
aF0.008308295728456594
aF0.008913427039804016
aF0.009539868495388707
aF0.010284741592019909
aF0.011093925506150711
aF0.011762627450014523
aF0.012690903189106477
aF0.010115229748934744
aF0.011482318676022578
aF0.01296074968496399
aF0.01465637958597353
aF0.016476686210356254
aF0.009912162579604138
aF0.01594180873532529
aF0.023568099247147953
aF0.025572015352498804
aF0.05111809108698951
asS'A4_y1.00_y1.20_val_err'
p563
(lp564
F0.013843096079087965
aF0.00942835569516237
aF0.009235003475761061
aF0.00984812037505965
aF0.010516620915906197
aF0.011236083214272915
aF0.012024299274203782
aF0.012865327592691534
aF0.013743924521255944
aF0.014860659074155532
aF0.011643325485227757
aF0.013342056091166224
aF0.0149349476033687
aF0.016682049204659873
aF0.01837525024362855
aF0.010958015621883881
aF0.017151794342839324
aF0.025219215680170836
aF0.026984125033794167
aF0.05344150025479046
asS'A6_y0.20_y0.40_val_err'
p565
(lp566
F0.014439327527012802
aF0.009838280192904924
aF0.009625198972244346
aF0.0101783527487368
aF0.010873405827890162
aF0.011596192811197769
aF0.012359217866936403
aF0.01324178999824575
aF0.01423810501715469
aF0.01537819503647018
aF0.012089891058011571
aF0.013676019621763607
aF0.01535980351505874
aF0.01730187751184268
aF0.019387123735400802
aF0.011473072205259085
aF0.018148563591575798
aF0.026452557220726158
aF0.02844853041422592
aF0.0567406442858796
asS'A4_y0.00_y0.20_val'
p567
(lp568
F0.012115392519523772
aF0.016421672072480402
aF0.014801119343894687
aF0.026400780826256885
aF0.013202145227044588
aF0.01876686238242751
aF0.01613809050142412
aF-0.008146738246497438
aF0.021240085598950176
aF0.05161365954566072
aF-0.0012165003403379832
aF0.005619778008079292
aF0.021601341656727852
aF0.0092964456605325
aF0.016811999735008156
aF0.014980304662910384
aF0.004260890093303182
aF0.03806930190841059
aF0.0037322543945625944
aF0.06758234994699432
asS'A6_y1.20_y1.40_val_err'
p569
(lp570
F0.01457336754227661
aF0.009943407307324344
aF0.009782888600782047
aF0.01040018670276532
aF0.01103633567368495
aF0.01182210815282916
aF0.012683258056217221
aF0.013608234495660622
aF0.01472437956241504
aF0.015659360365784893
aF0.012434905941788072
aF0.014115142389125177
aF0.01599317034951124
aF0.017874406950140004
aF0.019753402206826334
aF0.011885263863859508
aF0.01864725443976749
aF0.027493033137305545
aF0.030051727799728343
aF0.05919563277122236
asS'A3_y0.20_y0.40_val'
p571
(lp572
F0.0003476922982897562
aF-0.004548440628299442
aF-0.013601321712397392
aF-0.03381927512668556
aF-0.021450022019411683
aF-0.05216791353764983
aF-0.04313310099300154
aF-0.035026193348191195
aF-0.03898474316307225
aF-0.04944414521912165
aF-0.05652088962028626
aF-0.056665023576784296
aF-0.07513396039559138
aF-0.03329296978078026
aF-0.04442191303829223
aF0.003847996417930767
aF0.04895056108477226
aF0.06506406003491565
aF0.14661630030622264
aF0.1444361589121116
asS'A7_y2.00_y2.50_fit'
p573
(lp574
F0.0
asS'A6_y0.60_y0.80_fit'
p575
(lp576
F0.0
asS'A1_y1.00_y1.20_val_err'
p577
(lp578
F0.014484537577414145
aF0.00993881828732787
aF0.009720202328092509
aF0.010376022744011745
aF0.011081515880994392
aF0.011882135462275217
aF0.01274541771560121
aF0.0137419662076504
aF0.014710613423153215
aF0.01594918424993696
aF0.012569812066808187
aF0.014531404080717996
aF0.01628586777437089
aF0.01835431123361373
aF0.020285957236706894
aF0.012223445979553618
aF0.019628262032307286
aF0.02895593632047253
aF0.03174561481007434
aF0.06329238357505869
asS'A7_y0.60_y0.80_val'
p579
(lp580
F0.020145932652526784
aF-0.005575294295143766
aF-0.0038162210216392896
aF0.0050844336368883825
aF0.015214104419617553
aF0.00187908935181029
aF-0.0032939548234658784
aF-0.007574645958385074
aF-0.012293983644792093
aF0.005490871997598849
aF0.007151960246873865
aF-0.021191224771316297
aF-0.0018113659669281945
aF0.028614316067787856
aF0.007285712245979054
aF-0.01277239596392582
aF-0.0003028044393444238
aF0.009768539214111947
aF-0.0012349920690594741
aF0.04985726091073511
asS'A4_y0.00_y0.20_val_err'
p581
(lp582
F0.01365788864407871
aF0.009295666591738508
aF0.009101557653615207
aF0.009602441076064555
aF0.010235250180954272
aF0.010974600361305884
aF0.011771214130486327
aF0.012581318995250038
aF0.013579970255130355
aF0.014511478497012677
aF0.011398354010123284
aF0.012925600340985539
aF0.014477235065623274
aF0.016098054166009495
aF0.01798413015043956
aF0.010711030596545533
aF0.0165548294051509
aF0.02482600628853728
aF0.025840373357575448
aF0.050325360878239446
asS'A1_y4.50_y5.00_val_err'
p583
(lp584
F0.0472752190029983
aF0.03502641871141607
aF0.03938461887705262
aF0.0439205699205679
aF0.05130270045418253
aF0.05702526010893009
aF0.06526800848967658
aF0.06959820971004665
aF0.08521635717515959
aF0.09990109556152242
aF0.08207256530324017
aF0.10370111461423605
aF0.12985176706363036
aF0.15236653700432326
aF0.21014215171512607
aF0.1837618599239374
aF0.5810074957119684
aF0.9583224322020579
aF0.0
aF0.0
asS'A5_y1.20_y1.40_val_err'
p585
(lp586
F0.013032199515661326
aF0.008865508849899836
aF0.008739170814545552
aF0.009326511413873423
aF0.009961250646809583
aF0.01063995111524854
aF0.011425179597044447
aF0.01236475134097339
aF0.013324668531252548
aF0.014487556781009018
aF0.011417734737933848
aF0.01323765289446879
aF0.015122085638696436
aF0.017077151480655486
aF0.019196750851199623
aF0.011661215324701376
aF0.019128299930220118
aF0.028656593623917315
aF0.03212613916047594
aF0.06441081739998344
asS'A5_y2.50_y3.00_val'
p587
(lp588
F0.008963920739780178
aF0.004935826312412207
aF-0.014328603845235391
aF-0.00955445014581076
aF0.003502243294622284
aF0.0017329651452643795
aF0.0058360106877008815
aF0.002436225651210372
aF0.0027344549155682183
aF-0.027609576066303522
aF0.006680526529156397
aF-0.005680792710178892
aF0.0018931890460979716
aF0.0002856513185287043
aF0.027151698522523894
aF0.017181176786247983
aF0.0009777523032603375
aF0.0007806870148531766
aF-0.0013125830038227227
aF0.05514084155266308
asS'A5_y1.00_y1.20_val_err'
p589
(lp590
F0.012994782910420829
aF0.00885626981573283
aF0.008702025550966119
aF0.009253740323623494
aF0.00992863202210352
aF0.01057698952432495
aF0.011496136813695778
aF0.012274239806143408
aF0.013256295963921923
aF0.014242538079389543
aF0.01135146943377855
aF0.013081706994963773
aF0.014868565965006356
aF0.016950243349303853
aF0.01884177236437595
aF0.011569374430116129
aF0.01902970779575508
aF0.02873775872369862
aF0.03125506347511122
aF0.06421896021439055
asS'A2_y0.20_y0.40_fit'
p591
(lp592
F0.0
aF0.004316966140352846
aF9.793829602769769e-05
asS'A0_y0.80_y1.00_val'
p593
(lp594
F-0.0011998210038200623
aF0.009195811391023436
aF0.015038222862525819
aF0.010242643733796682
aF0.011612674233053859
aF0.03936578541632803
aF0.007921292196793347
aF0.047871295185716145
aF0.09426843041235797
aF0.1308115580250657
aF0.14359134000801482
aF0.21007610491331336
aF0.23612352294055663
aF0.3190428046156145
aF0.3125164187907654
aF0.49051571195872506
aF0.5896540416751422
aF0.748337599962797
aF0.8261582060763069
aF0.8981327233579806
asS'A3_y2.50_y3.00_val_err'
p595
(lp596
F0.008121071706148382
aF0.005593955635894376
aF0.005569270483666255
aF0.006014927853994222
aF0.006479873152617668
aF0.007008188197018626
aF0.00755722808815981
aF0.008233095640229988
aF0.00894922472217066
aF0.009743755615959216
aF0.0077985028200357786
aF0.009128929348597365
aF0.010495225386540127
aF0.012066660880091088
aF0.013638542527841517
aF0.008554054535956184
aF0.01490904629395284
aF0.02420959038335353
aF0.02984406222516787
aF0.07126519430804211
asS'A1_y4.50_y5.00_val'
p597
(lp598
F-0.07096806161479854
aF0.06473051555773313
aF0.10061899826070832
aF-0.02237193741438585
aF0.09579379675718433
aF0.19193340424232358
aF0.2618534780314523
aF0.3069534523184673
aF0.29844452060257565
aF0.316551725987871
aF0.25428995345573896
aF0.290100550426609
aF0.48559394599187916
aF0.4102331141142429
aF0.27023463357258626
aF0.4144450293069276
aF0.1841363554674563
aF1.0593022073778602
aF0.0
aF0.0
asS'A6_y0.40_y0.60_fit'
p599
(lp600
F0.0
asS'A0_y3.00_y3.50_val_err'
p601
(lp602
F0.012452936771393185
aF0.00863127429164045
aF0.008738590309178203
aF0.009396775865257423
aF0.010190752573542614
aF0.011023327449601654
aF0.011899850302595355
aF0.012869603820845678
aF0.014050356713322786
aF0.015451658222874505
aF0.01230544334201334
aF0.014427955167608848
aF0.016619998012555735
aF0.019141064659822862
aF0.022241339349057764
aF0.013823572019085725
aF0.024736978304966763
aF0.04139940307525317
aF0.05440871704804347
aF0.15381471422668694
asS'A5_y0.20_y0.40_val'
p603
(lp604
F-0.007542070591123688
aF-0.004105930311584976
aF-0.0031724987546694434
aF0.0005665283224364398
aF0.01629380378277818
aF-0.008192311064827602
aF0.0008419235090749342
aF-0.008876177618692745
aF-0.012361805577707734
aF-0.008093416190541717
aF-0.0005044110213751502
aF-0.0015530888075833854
aF-0.006702204932582945
aF0.015131023693847875
aF0.00855529846003389
aF-0.00026399589370808247
aF-0.001736618094737751
aF-0.008759649695311227
aF0.03526451297081988
aF-0.03680549709087252
asS'A7_y1.00_y1.20_val'
p605
(lp606
F-0.01543961206814414
aF0.005096716095546176
aF-0.005389643772787126
aF-0.006411178321287859
aF0.00040317067746147516
aF0.00959171804861997
aF0.006559962756417263
aF0.012602901351753466
aF0.01113739373893072
aF0.007617102964584619
aF-0.006094540495788955
aF0.017445462570510946
aF0.016307519062859255
aF-0.0011388686452437492
aF0.010575067730640708
aF-0.014803081863586183
aF-0.012352011244829526
aF-0.047538940682986794
aF-0.022344160490454613
aF-0.0256072361606329
asS'A3_y0.00_y0.20_fit'
p607
(lp608
F0.0
aF-0.004912786505360145
aF9.811437752236651e-05
asS'A0_y0.40_y0.60_val'
p609
(lp610
F-0.011747118294527561
aF-0.003821943653662962
aF0.007279135143651706
aF0.0020850735697430325
aF0.010736654366382565
aF0.013297742494053848
aF0.010795130905899746
aF0.049580058134365425
aF0.035322698710316305
aF0.06366250497495178
aF0.1504131995874055
aF0.2125425907299575
aF0.2634453065433854
aF0.3069412560916198
aF0.3745032992302898
aF0.46167399629118394
aF0.6205460433485654
aF0.718486526042331
aF0.8197008140551155
aF0.8600109256306411
asS'A4_y1.00_y1.20_val'
p611
(lp612
F0.2751200373471736
aF0.26254228245694017
aF0.2541295442592661
aF0.22397374292988337
aF0.22877366269381608
aF0.23536824673643436
aF0.22205107384388403
aF0.21454799669493718
aF0.22401728326457132
aF0.21338835487363597
aF0.2250856308937271
aF0.21450760728478002
aF0.2215335256862752
aF0.19416909086231157
aF0.18265095779039853
aF0.2090724650785877
aF0.15937470953291843
aF0.19226338454659345
aF0.12364070264564445
aF0.08026168383939689
asS'A4_y1.80_y2.00_fit'
p613
(lp614
F0.5461184503203124
aF-0.0023047601657088315
asS'A1_y0.00_y0.20_val_err'
p615
(lp616
F0.014408196907998395
aF0.009800213635841748
aF0.009604953907503745
aF0.010171760184423975
aF0.01085631768047781
aF0.011658795877316863
aF0.012528607489180475
aF0.013343602666035188
aF0.01454562593875055
aF0.015555650934442363
aF0.012299004115954252
aF0.013971433786755368
aF0.01582143794436443
aF0.01758424273779078
aF0.019733039593928713
aF0.011918180252569953
aF0.01892669471678174
aF0.028922980854853442
aF0.030859287200928627
aF0.06002071647807891
asS'A5_y3.00_y3.50_fit'
p617
(lp618
F0.0
asS'A2_y3.00_y3.50_val_err'
p619
(lp620
F0.019138998126906583
aF0.013221921130336786
aF0.013395809543117934
aF0.014486646400134294
aF0.0156825169142917
aF0.0169924104012543
aF0.018538752860070364
aF0.01998816619407618
aF0.02186202709586655
aF0.024297442936333218
aF0.019391026633156873
aF0.022896648156129653
aF0.026674627896862316
aF0.030950169102721036
aF0.035614748304017216
aF0.02264057572546167
aF0.041008647727707924
aF0.06909733167449113
aF0.09059058065430962
aF0.25733899143400396
asS'A4_y3.50_y4.00_val'
p621
(lp622
F1.554420219555348
aF1.5266850284480435
aF1.5236038165768364
aF1.5010181316015407
aF1.4815551343617157
aF1.4980069447399904
aF1.4721247898683514
aF1.4633733464839358
aF1.439391639806828
aF1.4368641484711684
aF1.3888638182634314
aF1.3596873924940307
aF1.3302569773495008
aF1.2903767256471022
aF1.2623406039714626
aF1.1247604957985826
aF0.9634103495908541
aF0.9766618434137113
aF0.6801864681544696
aF0.7307603399410897
asS'A1_y0.20_y0.40_val_err'
p623
(lp624
F0.014446600246087384
aF0.009820442968548428
aF0.009650914337483213
aF0.01013479436403744
aF0.010906407771918982
aF0.011671023147888962
aF0.012557896818440079
aF0.013417495435060642
aF0.0144186691685249
aF0.01554430470494124
aF0.01223074082094344
aF0.01400644603506811
aF0.015861052750081824
aF0.01781621301213713
aF0.019947079045920586
aF0.012008764766962162
aF0.019185790720203634
aF0.02845434231156921
aF0.030498667513975106
aF0.06326022425236662
asS'A5_y0.80_y1.00_val_err'
p625
(lp626
F0.012958032577524089
aF0.00884623785623624
aF0.008690430104459608
aF0.009183050905931973
aF0.009803468010370896
aF0.010581764455206172
aF0.011235495550831259
aF0.012171214525086477
aF0.01320209457728753
aF0.014169393635640262
aF0.011320919625360464
aF0.013011677529340354
aF0.014740536431765846
aF0.016670283723151012
aF0.018910505792791358
aF0.011540283378399081
aF0.018804250202439036
aF0.028308568481823844
aF0.03110191400370003
aF0.06266760753656969
asS'A2_y1.20_y1.40_val'
p627
(lp628
F-0.011798646636659037
aF0.002943957535647865
aF0.039328566781406935
aF0.036130281607838766
aF0.048615953552446745
aF0.038161256362226864
aF0.1338947587260401
aF0.12191993442717157
aF0.09943990609084342
aF0.1466688409603019
aF0.15994775823512541
aF0.2459612079784172
aF0.300503909786133
aF0.33282462408534774
aF0.41301082354462926
aF0.4343044680941022
aF0.5741061820242903
aF0.6760500185383698
aF0.6865905369750338
aF0.76071807944236
asS'A6_y4.50_y5.00_val'
p629
(lp630
F0.05877891488799141
aF0.02657712355145992
aF0.021269047284881385
aF-0.0374078401839487
aF0.058683107475453036
aF0.16562077473077907
aF-0.0592172583351246
aF-0.06226621141757855
aF-0.014470446280960643
aF0.09761021159974428
aF0.03337882189470158
aF0.16110586767807733
aF-0.1485911391862827
aF-0.15968812289014708
aF-0.14513841933431326
aF0.1328613220232806
aF-0.5695678122349082
aF1.4222464101558339
aF0.0
aF0.0
asS'A1_y1.00_y1.20_val'
p631
(lp632
F0.01908979563567013
aF0.018186119080302085
aF0.01927919334010838
aF0.048219784765414254
aF0.06097285371764367
aF0.08918013560183931
aF0.09587477621878786
aF0.13727193784327155
aF0.13156123722896107
aF0.10821821976015479
aF0.12595560591841626
aF0.09883054078725767
aF0.10500879608552274
aF0.08379263860094405
aF0.08183702507600622
aF0.07079321733409769
aF0.045922211550288555
aF0.009885757260641106
aF-0.035855005896525946
aF0.027030129002910477
asS'A5_y1.20_y1.40_fit'
p633
(lp634
F0.0
asS'A7_y0.00_y0.20_val'
p635
(lp636
F0.004406609804358212
aF-0.001989688317589547
aF-0.01113984721334151
aF0.006490770110229809
aF-0.009228435862612934
aF0.004720146568483045
aF0.009804202476645667
aF-0.002507862634718697
aF0.010972897706412651
aF-0.014072430367707434
aF0.005697011794992005
aF0.002613850084460945
aF-0.002954124012846474
aF-0.016523014875412422
aF0.013463772844684245
aF0.0027690837995228957
aF0.01285550512875346
aF0.02469627884372138
aF0.003206139773729761
aF-0.00623005084462806
asS'A6_y1.00_y1.20_val'
p637
(lp638
F0.02228967491216191
aF-0.0018785261168736845
aF0.0069152079149078045
aF0.0034603461527366337
aF0.0041743432462008215
aF0.004285871127990815
aF-0.008619159135718412
aF0.005620739407027058
aF0.009978204758482512
aF-0.015001460685649625
aF0.007098749894681836
aF0.0013804030323179633
aF0.0030976922450578178
aF0.02819638165233084
aF0.027405279405243017
aF0.002748307414039762
aF-0.02895963478150656
aF0.004412064347998616
aF-0.02430722285801052
aF-0.05144552487179692
asS'A6_y2.50_y3.00_fit'
p639
(lp640
F0.0
asS'A7_y4.50_y5.00_val'
p641
(lp642
F-0.018652018550897678
aF0.026346237851177328
aF0.02956409758713108
aF-0.06220562817840543
aF-0.028897298383751567
aF0.20007928726829508
aF-0.1386281884084033
aF-0.04995956900524849
aF0.029325895348476638
aF0.018692394775907825
aF0.07940781040421493
aF0.08900780157684728
aF-0.053919102506486634
aF-0.03437316786968526
aF-0.02241830859725834
aF0.12204481212544407
aF-0.30475172163244985
aF1.3713237616764047
aF0.0
aF0.0
asS'A2_y1.40_y1.60_fit'
p643
(lp644
F0.0
aF0.007958762452093107
asS'A7_y2.50_y3.00_val_err'
p645
(lp646
F0.008135872777836454
aF0.005564293047402388
aF0.00556063944061688
aF0.00595248893639736
aF0.006402765033519176
aF0.00692456072402871
aF0.007430855346861479
aF0.00810260797199164
aF0.008730879680756407
aF0.009474965273004465
aF0.007546470122237766
aF0.008736355671059442
aF0.009965138749262996
aF0.011456616493266123
aF0.012840627016231102
aF0.00794901917080361
aF0.013451046059062152
aF0.021039067892251916
aF0.02472810280506652
aF0.05954021607972411
asS'A6_y0.20_y0.40_val'
p647
(lp648
F-0.005058540814321295
aF-0.009486284345801009
aF0.01714172105091907
aF0.004194516117439955
aF-0.002532335685805598
aF0.01401922489096566
aF-0.01724943738187653
aF0.0051872061499280645
aF0.0005895489980628063
aF0.0034202433635493654
aF-0.009933850460402
aF0.007232978900512176
aF0.013515602891725117
aF-0.009004950990111912
aF0.02966821939401136
aF-0.006545486417427025
aF0.02115560118416061
aF0.03326529438802896
aF-0.021383436467964513
aF-0.06505777717900432
asS'A0_y2.00_y2.50_fit'
p649
(lp650
F0.0
aF-0.0024735841531856873
aF0.0006060593878997825
aF-7.63458595445522e-06
asS'A3_y1.80_y2.00_val_err'
p651
(lp652
F0.012114040745912295
aF0.008327930665261508
aF0.008232789434041966
aF0.008790922278613927
aF0.009468746054832652
aF0.010163018639158273
aF0.010887461097774397
aF0.011779460514670511
aF0.01273796772754633
aF0.013943796308090799
aF0.011054002122079479
aF0.012790178456613066
aF0.014678199689643798
aF0.016593506179949064
aF0.018749083237776572
aF0.011447730852375649
aF0.018946295586400916
aF0.029374819737639227
aF0.03313703062526131
aF0.06992348825930672
asS'A7_y0.40_y0.60_val'
p653
(lp654
F-0.02126235455703343
aF-0.004567220309518354
aF0.014902134400671322
aF-0.01808882295175591
aF-0.010987358243877232
aF0.004549109931285273
aF0.007172019080161633
aF0.002423738820113975
aF0.00497657716802014
aF-0.029533633644837905
aF-0.007152542290337751
aF0.005438645802872223
aF0.0018087297949498649
aF-0.012132010054236761
aF0.00952304577713392
aF-0.002755465667521715
aF-0.0069152379054513964
aF-0.022318313265607896
aF-0.015497229411797526
aF-0.050684745698923395
asS'A6_y3.00_y3.50_val'
p655
(lp656
F0.025533201544373607
aF-0.009524808880628712
aF0.0021965544751997245
aF-0.0019340788337270781
aF0.013081357003465
aF-0.01099094275684247
aF0.005075907824736909
aF-0.013151634034969559
aF0.01249752602509566
aF-0.01700206749014905
aF-0.0005947351294343401
aF0.0021756075385188007
aF0.0040229702531016775
aF0.01398767122046316
aF0.022600957278573714
aF0.0015920074069667516
aF-0.007072977298203825
aF0.01992770530708964
aF-0.042169918787235666
aF-0.03625246100688894
asS'A5_y4.00_y4.50_fit'
p657
(lp658
F0.0
asS'A5_y4.50_y5.00_val'
p659
(lp660
F-0.007546501484781299
aF-0.05730779475294139
aF-0.00418781617635682
aF-0.06545468999401378
aF-0.06583663614549566
aF0.021786378069534137
aF-0.04215161037203072
aF-0.0038442519342113735
aF-0.0059284760471529484
aF0.05277119307957293
aF0.08247952570219445
aF-0.2999143877535484
aF0.07042042722882594
aF0.02906965078709296
aF-0.30346004438507224
aF0.15483092603562554
aF-0.024111411020234945
aF1.7263620781697024
aF0.0
aF0.0
asS'A5_y0.20_y0.40_val_err'
p661
(lp662
F0.012947831946525679
aF0.00881043087504409
aF0.008642674652484778
aF0.009080253720443842
aF0.009714576498771735
aF0.010427443981481826
aF0.011183918323980729
aF0.012075308724336318
aF0.01299526810390004
aF0.01402915390426675
aF0.01110768422545935
aF0.01271482626902319
aF0.01450854092370281
aF0.01653781065368814
aF0.018491325242397556
aF0.01129175386036104
aF0.018380218819317003
aF0.027835256163043928
aF0.030426440067888097
aF0.06066600911428811
asS'A0_y0.00_y0.20_val_err'
p663
(lp664
F0.016901644521264157
aF0.01147343686855396
aF0.011203749849203925
aF0.011837950103574175
aF0.01261424670177888
aF0.013569790996728396
aF0.014511589457193823
aF0.015587558615387803
aF0.016799648800714412
aF0.018084719479509036
aF0.014195998880767615
aF0.016280202985574782
aF0.018408824800730368
aF0.020729318396249405
aF0.02295787808503765
aF0.0139705593971613
aF0.022227045727669877
aF0.03364324259150292
aF0.036226260239084006
aF0.0723036083953485
asS'A0_y2.50_y3.00_fit'
p665
(lp666
F0.0
aF-0.0020446986537363543
aF0.0005999816028525798
aF-7.4816603115871925e-06
asS'A0_y2.00_y2.50_val_err'
p667
(lp668
F0.011088009481605248
aF0.007616975203912396
aF0.007543951273501203
aF0.008081196749356388
aF0.00867473215774891
aF0.009344657555030746
aF0.010027567671678932
aF0.010798863784383968
aF0.011615387815639108
aF0.012613013931475457
aF0.009954138437757635
aF0.011457885250531749
aF0.013071412700451396
aF0.014846512107506113
aF0.016614894384307136
aF0.010075705463249512
aF0.01657043585607596
aF0.02526751502020662
aF0.028587301212204562
aF0.06175770268134481
asS'A2_y2.50_y3.00_fit'
p669
(lp670
F0.0
aF0.0034239350209852026
aF0.0003815273322896155
aF-5.7714949776236225e-06
asS'A4_y3.00_y3.50_val_err'
p671
(lp672
F0.011433763979073011
aF0.007893317617745773
aF0.007933547628948438
aF0.008521418999608486
aF0.00918954922331997
aF0.009985475933185132
aF0.01068095779310235
aF0.011612483216703875
aF0.01256676252542234
aF0.013712096004194327
aF0.010887140181885607
aF0.012676466638236312
aF0.014414768850372009
aF0.01627068998704018
aF0.01858817844164649
aF0.011379579121199648
aF0.019641073928418778
aF0.03212123950158133
aF0.04054470127875432
aF0.11325065192034717
asS'A1_y2.50_y3.00_val'
p673
(lp674
F0.009516231726878396
aF0.02458047173189503
aF0.03834394967324049
aF0.08183694347931543
aF0.0968156056360969
aF0.11359988216587952
aF0.12545002786318352
aF0.13876955432439833
aF0.15478761059397542
aF0.14760067507341404
aF0.13991403792029633
aF0.14495976638689795
aF0.12440015032782428
aF0.13026796116397413
aF0.145642551500791
aF0.13439788719115625
aF0.15983680178804086
aF0.15893084168957905
aF0.16944116329730835
aF0.20728644387749331
asS'A0_y2.50_y3.00_val_err'
p675
(lp676
F0.011586798164236588
aF0.007938572043170413
aF0.007907329344994628
aF0.008493859768922321
aF0.009172327005844976
aF0.009831231769438977
aF0.010576500302569928
aF0.011498998730283747
aF0.012428132423048443
aF0.013478056854667209
aF0.010713316117310245
aF0.012409475722357184
aF0.01418131645261811
aF0.016171019339937257
aF0.018228534945467268
aF0.011228461702572839
aF0.019016532444455402
aF0.03000648413603723
aF0.035800358319883714
aF0.08559224697506887
asS'A4_y0.80_y1.00_val'
p677
(lp678
F0.2002347039292214
aF0.2087197822772138
aF0.20066418614555323
aF0.17372182044764733
aF0.19045836486183662
aF0.18071066355046056
aF0.18965930531038117
aF0.18537369353196562
aF0.16633526949820376
aF0.19820342051186288
aF0.156661940198018
aF0.16844131040062713
aF0.16582660794983595
aF0.15733872562249604
aF0.17715396340803227
aF0.14330256808725622
aF0.13080387868795468
aF0.14507047943642498
aF0.1071312919425553
aF0.06242575228317441
asS'A0_y0.00_y0.20_val'
p679
(lp680
F0.010511945820669525
aF-0.007932295415724083
aF-0.006443508723317702
aF0.0011929574877572815
aF0.017251538468657197
aF0.02865000512882031
aF0.02128321478150096
aF0.031226878838522102
aF0.054479843297961565
aF0.10087799887003149
aF0.12806760817627924
aF0.19079765849063937
aF0.27207255485244003
aF0.32404890345988
aF0.31692746965808594
aF0.4370320330434855
aF0.6263035167825147
aF0.674261457966321
aF0.8504338288441055
aF0.9193631020195104
asS'A4_y4.50_y5.00_val'
p681
(lp682
F1.6724241197554783
aF1.706288716965956
aF1.7061240722433797
aF1.7077258884538162
aF1.711182926537373
aF1.6882072287158638
aF1.6265895038618117
aF1.6466642384761954
aF1.7185075660365543
aF1.6692478034262295
aF1.4209440557043809
aF1.2689854046821376
aF1.3279581528049782
aF1.4739630368744414
aF1.247250426056342
aF1.3149055203461633
aF1.0414083141268304
aF1.5460965129813389
aF0.0
aF0.0
asS'A5_y1.00_y1.20_fit'
p683
(lp684
F0.0
asS'A5_y0.00_y0.20_val'
p685
(lp686
F0.003258769430151385
aF0.0014919254325246125
aF-0.005738681386141034
aF-0.013709066073318734
aF0.005563065524976057
aF0.007407464067894169
aF-0.010797274374460429
aF0.0012206726606262342
aF0.02258002824860654
aF-0.01713907329998131
aF-0.0012947907070850633
aF-0.013766955232011253
aF0.021397720750400487
aF0.020417266405555096
aF-0.014646354732082974
aF-0.006773634439363109
aF0.0014701489541929407
aF-0.010598172420649829
aF0.007075129980605218
aF-0.005814712427825101
asS'A4_y0.20_y0.40_val'
p687
(lp688
F0.07797987417429447
aF0.055096854457537765
aF0.06413942904384409
aF0.06572979580042107
aF0.06158837559854259
aF0.04602640179364772
aF0.06307960965301351
aF0.056437975392183454
aF0.05759214106753054
aF0.04027716433733579
aF0.06448711580377468
aF0.03753198885435267
aF0.04912900872679949
aF0.05564093928879886
aF0.05334988968356574
aF0.05033905640838223
aF0.06479147888863257
aF0.026747921594371074
aF0.06914626339556768
aF0.04268949500161793
asS'A7_y2.00_y2.50_val'
p689
(lp690
F-0.007148984211618157
aF-0.003192822075975039
aF0.0074265317653538195
aF-0.004540102894661248
aF0.008935319291956035
aF-0.0007974366664769815
aF2.2950507692090346e-05
aF-0.007212962312385774
aF-0.004889358850599654
aF6.839369467885399e-05
aF-0.0034948827644590954
aF-0.006469995383064208
aF0.0014845153879228593
aF-0.00986873481049219
aF-0.0060701558489947615
aF-0.007710915772337384
aF-0.010832002116080772
aF0.015470540614385384
aF-0.00976177502894681
aF0.03798742422636984
asS'A7_y1.20_y1.40_fit'
p691
(lp692
F0.0
asS'A7_y1.00_y1.20_fit'
p693
(lp694
F0.0
asS'A4_y0.20_y0.40_fit'
p695
(lp696
F0.057136780714846624
asS'A1_y0.40_y0.60_val'
p697
(lp698
F0.044093360414802954
aF0.03205254394227919
aF0.016850479137141695
aF0.019128747545042707
aF0.04114261519147872
aF0.05415769621928654
aF0.07165801399749482
aF0.0701012072326618
aF0.05764800884354009
aF0.06362306517258781
aF0.057888488145849994
aF0.05367536908206313
aF0.06287181565892858
aF0.05893025062028788
aF0.03924892026858544
aF0.05495587672635177
aF0.015420176925015837
aF0.05189247499502328
aF0.04822935756890646
aF0.047162476398098216
asS'A1_y0.00_y0.20_val'
p699
(lp700
F-0.009997365770723346
aF0.0037254183105170633
aF0.0076058470656545085
aF0.00758069699612406
aF0.0075788183464740155
aF0.015477922635212792
aF-0.007713983621251776
aF0.02519633471672719
aF0.02973558909412698
aF0.013816658576400395
aF0.010894709274875845
aF0.007763069599043044
aF0.018506130137330302
aF0.03530552405580303
aF-0.00018695459924541447
aF0.01929942986726697
aF-0.007269624165935034
aF0.0341980177219655
aF0.025871346168695956
aF-0.03805905056165283
asS'A5_y4.00_y4.50_val_err'
p701
(lp702
F0.017687139649625625
aF0.01267245911695691
aF0.013319429644017694
aF0.014736621224878151
aF0.016486473944556775
aF0.01800532728091858
aF0.019907772630500437
aF0.022250111145489297
aF0.024952963236914982
aF0.027996241334691255
aF0.022978594430906735
aF0.029240868237297685
aF0.034861308116024066
aF0.042314889962367305
aF0.05147488183712685
aF0.03684677490379646
aF0.08518937270079871
aF0.19573412992761013
aF0.38124763472901113
aF0.0
asS'A3_y1.40_y1.60_val_err'
p703
(lp704
F0.012064516797228296
aF0.008158335806430777
aF0.008039803468939814
aF0.008652241360689126
aF0.009242401034394877
aF0.009982842531945195
aF0.010734803878353003
aF0.011536997655179664
aF0.01253563771342953
aF0.013626934684661715
aF0.010712542529266348
aF0.012360262909107654
aF0.014185889718713405
aF0.015930740200464727
aF0.017973011865152034
aF0.0110606837426658
aF0.018174390809576002
aF0.0277606514926482
aF0.03040286602561955
aF0.06439472951046084
asS'A2_y0.00_y0.20_val'
p705
(lp706
F-0.00021557273022511153
aF0.017557723154368522
aF0.004112927511783619
aF0.028815239836412033
aF0.010645125212146177
aF0.06873198950304168
aF0.046199546427404946
aF0.06403544625466503
aF0.12020327305185802
aF0.10601857421371781
aF0.17683325501863534
aF0.1907265360416949
aF0.2747499307378384
aF0.3012763420951661
aF0.35100908298683586
aF0.35475435012065387
aF0.526646721958541
aF0.6761176552922231
aF0.7547487030329243
aF0.9158584858744186
asS'fit_range'
p707
(lp708
F0.0
aF50.0
asS'A4_y1.20_y1.40_val_err'
p709
(lp710
F0.013977236611833865
aF0.00948404867611776
aF0.009347461679997953
aF0.00992662526574582
aF0.010552091420503134
aF0.011292327803641668
aF0.01214091431738079
aF0.013028430689908723
aF0.014039083171639195
aF0.014854940483619121
aF0.011803841466341893
aF0.013387380155110708
aF0.015128740313003373
aF0.016888344965909574
aF0.01878747827272049
aF0.011183489808337128
aF0.01734904015513082
aF0.025799068781936406
aF0.027607695653444633
aF0.0542731493872504
asS'A6_y0.80_y1.00_val'
p711
(lp712
F0.011748958512003155
aF0.01134193646692374
aF-0.0008796643003321421
aF-0.009752454319234195
aF0.020255015870804322
aF-0.002527076665869738
aF-0.009852854117561982
aF-0.015705571017200572
aF0.0017601609213112586
aF-0.018763346577667876
aF-0.013240309682949671
aF-0.001439679128713742
aF-0.02502850683929101
aF0.0007540463951183938
aF0.029532607630046996
aF0.005867276660806792
aF-0.008445453261633526
aF0.016645970901866095
aF-0.02794335808030844
aF-0.005366951882389917
asS'A3_y1.00_y1.20_val'
p713
(lp714
F-0.00453525879650966
aF-0.00449601643212439
aF-0.020813270474397617
aF-0.015509034491621602
aF-0.012314022939257064
aF-0.008140395949988421
aF-0.026898074974322127
aF-0.016844491272277953
aF-0.019152372955712902
aF-0.024792537409283284
aF-0.019581492102129106
aF-0.022670611253617284
aF-0.014127385406020208
aF-0.033704755647472426
aF-0.01814980645888978
aF0.0396166601520261
aF0.08557600487524171
aF0.16583236562286915
aF0.20833489045595882
aF0.3587965562053486
asS'A2_y1.60_y1.80_fit'
p715
(lp716
F0.0
aF-0.0009588232064036417
aF0.0006180161649106623
aF-8.653360089412891e-06
asS'A0_y1.40_y1.60_fit'
p717
(lp718
F0.0
aF-0.0076198849024732285
aF0.0011903377180861475
aF-2.867581419835341e-05
aF2.3051695009145926e-07
asS'A2_y3.50_y4.00_val'
p719
(lp720
F-0.004897986304376361
aF0.002519479404709875
aF0.04747744203187462
aF0.03700900963235878
aF0.048064607838486456
aF0.08918377924300842
aF0.03085513815328565
aF0.12867700199115512
aF0.07398494245317307
aF0.2241320949159898
aF0.2237934292987515
aF0.23754747513326893
aF0.30627529237657636
aF0.3386395608732951
aF0.39124993553465875
aF0.4726679117933092
aF0.4032030593985081
aF0.5869144592130839
aF0.607098764997517
aF1.5645683664264165
asS'A0_y0.80_y1.00_val_err'
p721
(lp722
F0.016880622467820697
aF0.011514891355797025
aF0.01131154217281092
aF0.011957258106340555
aF0.012769417049190704
aF0.01376935011220674
aF0.014601275030515812
aF0.015769335956041058
aF0.017063666027851213
aF0.01813773285587321
aF0.014423452277111639
aF0.016552728769597763
aF0.018721802539082857
aF0.0211980956794709
aF0.023846100186829026
aF0.014189343164516175
aF0.02294688474169938
aF0.03428679568543275
aF0.03751570343048733
aF0.07487500952847832
asS'A3_y1.80_y2.00_fit'
p723
(lp724
F0.0
aF0.0029768766727956975
aF-0.00016285368579092678
aF3.265868906306542e-06
asS'A5_y3.50_y4.00_val'
p725
(lp726
F0.0043567688427580565
aF-0.00193823605087454
aF-9.05724673099452e-05
aF-0.002945470571390699
aF0.007609789410909719
aF-0.009670292681830102
aF-0.016668476792317
aF-0.021700314018166127
aF0.0013207485100456549
aF-0.008439597141268518
aF0.01076908879353376
aF-0.0028913179584520088
aF-0.03664729741948052
aF0.039742103350192515
aF-0.040611546915441915
aF0.017956072860969032
aF0.002633496880990245
aF-0.06141824340812546
aF-0.04399621674120807
aF0.21761547514697036
asS'A2_y0.60_y0.80_fit'
p727
(lp728
F0.0
aF-9.799549790970308e-05
aF0.0005159088571612212
aF-7.185169937256019e-06
asS'A4_y1.80_y2.00_val_err'
p729
(lp730
F0.014353803832516679
aF0.00979751603563556
aF0.009684128508530471
aF0.010334803215864254
aF0.011058095259996703
aF0.011860667021827406
aF0.012643970648276928
aF0.013626196410787645
aF0.014740728331733333
aF0.015805859903752814
aF0.012492067748383687
aF0.014141239416877767
aF0.01602198761729761
aF0.017818452921689962
aF0.019820856353100814
aF0.011809826058886787
aF0.018667127658493963
aF0.027335738799386416
aF0.030277706200417885
aF0.06210947721641701
asS'A0_y0.60_y0.80_val_err'
p731
(lp732
F0.016917302975559982
aF0.011472492461178489
aF0.011275620377496132
aF0.011978477645589578
aF0.012829473208320175
aF0.013667951405320036
aF0.014628728966262656
aF0.015671513527641776
aF0.016896244441255412
aF0.018052967658397746
aF0.014303134552121293
aF0.01636736601727612
aF0.018485184982738302
aF0.020934315725780896
aF0.023362395350785898
aF0.014056234990371485
aF0.0226626734093653
aF0.033953538410906446
aF0.0364489895648036
aF0.07281623893736183
asS'A6_y4.00_y4.50_val'
p733
(lp734
F-0.01452672891922347
aF0.03098430713889764
aF0.0001230263191949801
aF-0.001412769797093466
aF-0.01043470370216575
aF0.03786908797820993
aF-0.00658636214583047
aF-0.012057407833282003
aF-0.009434444930152977
aF0.07431200118271007
aF0.054590669532081255
aF0.03419317645510899
aF-0.021226011096789715
aF-0.01147886031725819
aF-0.07194114284848127
aF0.03588624419896691
aF-0.025311691964679507
aF-0.13551913707678048
aF0.3368366996883657
aF0.0
asS'A6_y2.00_y2.50_val'
p735
(lp736
F-0.01234884759349122
aF-0.001228578452097394
aF0.011699530529842713
aF-0.008439199602393923
aF-0.019759705882923955
aF-8.587871634194055e-05
aF0.00014140650516130524
aF-0.0016250167222252967
aF0.015442852676216123
aF-0.0032395551562396764
aF-0.008806486314752397
aF0.008016526535568358
aF0.004842133123443034
aF0.0013491507910470342
aF-0.00646821395157809
aF-0.0043569746763245576
aF-0.021046941907348432
aF-0.01919803070237765
aF-0.0025129338015294437
aF0.06595606832936937
asS'A0_y1.20_y1.40_val_err'
p737
(lp738
F0.017068739990442835
aF0.011574805189749902
aF0.011422664345682471
aF0.012142927589075307
aF0.012931142447062947
aF0.013865527012960722
aF0.014883960375787103
aF0.016031553450518377
aF0.017260776231223827
aF0.01847546799530676
aF0.014618629469910327
aF0.01670745363714965
aF0.019114855077021632
aF0.021533852618631426
aF0.024189655988485773
aF0.014481072912662
aF0.023284186553348546
aF0.034976077664067656
aF0.038439976863966815
aF0.07586308310049791
asS'A4_y0.20_y0.40_val_err'
p739
(lp740
F0.013698502572483414
aF0.009310224404044883
aF0.009137591116899173
aF0.009638823239215175
aF0.010329752377129738
aF0.011024203910142055
aF0.01175685392033972
aF0.012581080348904794
aF0.013509706672969113
aF0.0145557091047486
aF0.011384946198738402
aF0.012900134542279378
aF0.014461399014049883
aF0.016308962503861116
aF0.01806901174141176
aF0.010725995070346316
aF0.016838458816471686
aF0.024313503256780986
aF0.026116534524539634
aF0.052761362189689714
asS'A7_y4.50_y5.00_val_err'
p741
(lp742
F0.0395011953702621
aF0.02911263474381057
aF0.032179573033176416
aF0.0359269618945874
aF0.04131489795771218
aF0.047354572952218316
aF0.05119731597546287
aF0.05881147415006512
aF0.06512384575686236
aF0.07699280865189469
aF0.06782012151747549
aF0.08327551056343456
aF0.10766450806633504
aF0.12750334252372847
aF0.17177144054676335
aF0.14062400326377542
aF0.41840847463321446
aF0.9697176116566156
aF0.0
aF0.0
asS'A5_y4.00_y4.50_val'
p743
(lp744
F0.010499885621866965
aF-0.022098208637822893
aF-0.013392740363235619
aF-0.012661433521559826
aF-0.012949838921644885
aF0.018741399548059458
aF-0.0035661028886590424
aF-0.009737288474967786
aF0.025599336832084072
aF0.0023002559694982093
aF0.030433954100471828
aF-0.01951235462972081
aF0.011539062174885909
aF0.030616993367445163
aF0.02777755125154573
aF0.009265632541462145
aF0.0938533963685503
aF0.003973951518425817
aF0.0419671425651824
aF0.0
asS'A3_y1.20_y1.40_val'
p745
(lp746
F-0.006885624088271568
aF0.010032039866655622
aF0.0031328445914327956
aF-0.004621383643484168
aF-0.03090466253679689
aF-0.011130693485919526
aF-0.013606758321421763
aF-0.0023161692745189383
aF-0.026636655161746715
aF-0.022211357267500526
aF-0.011187869889949437
aF-0.03303245329830372
aF-0.02559745812453116
aF-0.0157784509533418
aF-0.0032715319786352265
aF0.05787623339548258
aF0.1486892131305868
aF0.19349990930785357
aF0.31156955072544507
aF0.33318718636690686
asS'A0_y0.40_y0.60_fit'
p747
(lp748
F0.0
aF-0.005776821432642937
aF0.0007373421620258461
aF-8.725330881351352e-06
asS'A1_y1.80_y2.00_fit'
p749
(lp750
F0.0
aF0.013999438330069641
aF-0.0004849843957899745
aF4.9114706321596484e-06
asS'A0_y4.00_y4.50_val_err'
p751
(lp752
F0.022901706143315586
aF0.016475956282255153
aF0.017206536334770116
aF0.019419004886385653
aF0.02125386088375758
aF0.02353892908498388
aF0.025699376769679993
aF0.028856746666250505
aF0.03178452927429639
aF0.03608686877639934
aF0.029754802403591563
aF0.0371896765962612
aF0.0434054730354523
aF0.05278831468072448
aF0.06514018964650566
aF0.045459870114288044
aF0.10630091838303635
aF0.22467513421800767
aF0.4529309491139219
aF0.0
asS'A6_y0.80_y1.00_val_err'
p753
(lp754
F0.014396028642723878
aF0.009861598613451886
aF0.009673035091795155
aF0.010232508090506565
aF0.010910826046434674
aF0.011763477054641319
aF0.012544306058731029
aF0.013436419747782478
aF0.014467549219232143
aF0.015449409876898218
aF0.012257325145579808
aF0.013921820853080642
aF0.015545338913747875
aF0.017457077753040316
aF0.019776545496002756
aF0.01169616513836542
aF0.01838451055444649
aF0.027142662737451313
aF0.028925732775700437
aF0.057340232896689804
asS'A4_y1.20_y1.40_fit'
p755
(lp756
F0.3056314107536252
aF-0.0011925807002710481
asS'A3_y2.50_y3.00_fit'
p757
(lp758
F0.0
aF0.002471545448355925
aF0.0015167476573357142
aF-0.00011873810130764776
aF3.1782199170136055e-06
aF-2.749172034741545e-08
asS'A2_y4.50_y5.00_fit'
p759
(lp760
F0.0
aF0.01002857004613987
asS'A2_y1.80_y2.00_val'
p761
(lp762
F-0.014177435377180043
aF0.035929885587836496
aF0.02075987525081951
aF0.07052531273070858
aF0.036976818306549336
aF0.06024053325991036
aF0.02062876213109518
aF0.07297988890759219
aF0.09561925714670612
aF0.15866667412642482
aF0.17220340306776516
aF0.2553395036436602
aF0.2963403893225689
aF0.3439201111275616
aF0.3615821176955355
aF0.4073497856431054
aF0.4848002035500563
aF0.7326022277574614
aF0.6666815066799974
aF0.9557245584074632
asS'A3_y4.50_y5.00_val'
p763
(lp764
F-0.06331658030903041
aF0.11623398150412956
aF0.14426674349261365
aF0.08016155104198745
aF0.1651091015760603
aF0.2969310425653649
aF0.3135141824063986
aF0.36946999462826396
aF0.3285764845111705
aF0.2926444441361209
aF0.23969358047161968
aF0.2672160690620578
aF0.5128795878582242
aF0.44141244818545355
aF0.5378867746291255
aF0.8044422630046454
aF1.0430157958970236
aF0.777739395647228
aF0.0
aF0.0
asS'A3_y2.00_y2.50_val_err'
p765
(lp766
F0.007798776199867925
aF0.005355346614461266
aF0.005323579914210888
aF0.005699708124005403
aF0.006129630652015184
aF0.006616422845012188
aF0.007145460358363206
aF0.0077070128418245485
aF0.008369936944650302
aF0.009095088281672404
aF0.007249343570488732
aF0.008384921744822634
aF0.009653149084787689
aF0.010997989088228093
aF0.012427779754278409
aF0.007602739446294965
aF0.012792094551117737
aF0.019829148894399684
aF0.023123429131067384
aF0.051366260685443296
asS'A0_y4.00_y4.50_fit'
p767
(lp768
F0.0
aF0.003693584678602743
aF0.00015600475373407554
asS'A4_y0.80_y1.00_val_err'
p769
(lp770
F0.013743842285483652
aF0.009375386686911185
aF0.009197563057267115
aF0.009715229978190992
aF0.01038218442946145
aF0.011144570211703547
aF0.011921183683883004
aF0.012779555844494021
aF0.013728679840614823
aF0.014615712637384712
aF0.011598165096673003
aF0.013170034044017493
aF0.01475842159915668
aF0.016525021104075943
aF0.0186025136071455
aF0.010845112444434202
aF0.017170378218930277
aF0.02490620172355814
aF0.02672138759566166
aF0.0525298045882096
as.